	.file	"Paths.cpp"
	.text
.Ltext0:
	.section	.text._ZNSt13__future_base7_ResultIvE10_M_destroyEv,"axG",@progbits,_ZNSt13__future_base7_ResultIvE10_M_destroyEv,comdat
	.align 2
	.p2align 4,,15
	.weak	_ZNSt13__future_base7_ResultIvE10_M_destroyEv
	.type	_ZNSt13__future_base7_ResultIvE10_M_destroyEv, @function
_ZNSt13__future_base7_ResultIvE10_M_destroyEv:
.LFB4801:
	.file 1 "/usr/include/c++/4.8/future"
	.loc 1 544 0
	.cfi_startproc
.LVL0:
	.loc 1 544 0
	testq	%rdi, %rdi
	je	.L1
	.loc 1 544 0 is_stmt 0 discriminator 1
	movq	(%rdi), %rax
	movq	16(%rax), %rax
	jmp	*%rax
.LVL1:
	.p2align 4,,10
	.p2align 3
.L1:
	rep ret
	.cfi_endproc
.LFE4801:
	.size	_ZNSt13__future_base7_ResultIvE10_M_destroyEv, .-_ZNSt13__future_base7_ResultIvE10_M_destroyEv
	.section	.text._ZNSt16_Sp_counted_baseILN9__gnu_cxx12_Lock_policyE2EE10_M_destroyEv,"axG",@progbits,_ZNSt16_Sp_counted_baseILN9__gnu_cxx12_Lock_policyE2EE10_M_destroyEv,comdat
	.align 2
	.p2align 4,,15
	.weak	_ZNSt16_Sp_counted_baseILN9__gnu_cxx12_Lock_policyE2EE10_M_destroyEv
	.type	_ZNSt16_Sp_counted_baseILN9__gnu_cxx12_Lock_policyE2EE10_M_destroyEv, @function
_ZNSt16_Sp_counted_baseILN9__gnu_cxx12_Lock_policyE2EE10_M_destroyEv:
.LFB6172:
	.file 2 "/usr/include/c++/4.8/bits/shared_ptr_base.h"
	.loc 2 123 0 is_stmt 1
	.cfi_startproc
.LVL2:
	.loc 2 124 0
	testq	%rdi, %rdi
	je	.L4
	.loc 2 124 0 is_stmt 0 discriminator 1
	movq	(%rdi), %rax
	movq	8(%rax), %rax
	jmp	*%rax
.LVL3:
	.p2align 4,,10
	.p2align 3
.L4:
	rep ret
	.cfi_endproc
.LFE6172:
	.size	_ZNSt16_Sp_counted_baseILN9__gnu_cxx12_Lock_policyE2EE10_M_destroyEv, .-_ZNSt16_Sp_counted_baseILN9__gnu_cxx12_Lock_policyE2EE10_M_destroyEv
	.section	.text._ZNSt16_Sp_counted_baseILN9__gnu_cxx12_Lock_policyE2EED2Ev,"axG",@progbits,_ZNSt16_Sp_counted_baseILN9__gnu_cxx12_Lock_policyE2EED5Ev,comdat
	.align 2
	.p2align 4,,15
	.weak	_ZNSt16_Sp_counted_baseILN9__gnu_cxx12_Lock_policyE2EED2Ev
	.type	_ZNSt16_Sp_counted_baseILN9__gnu_cxx12_Lock_policyE2EED2Ev, @function
_ZNSt16_Sp_counted_baseILN9__gnu_cxx12_Lock_policyE2EED2Ev:
.LFB6421:
	.loc 2 113 0 is_stmt 1
	.cfi_startproc
.LVL4:
.LBB6761:
	.loc 2 114 0
	movq	$_ZTVSt16_Sp_counted_baseILN9__gnu_cxx12_Lock_policyE2EE+16, (%rdi)
	ret
.LBE6761:
	.cfi_endproc
.LFE6421:
	.size	_ZNSt16_Sp_counted_baseILN9__gnu_cxx12_Lock_policyE2EED2Ev, .-_ZNSt16_Sp_counted_baseILN9__gnu_cxx12_Lock_policyE2EED2Ev
	.weak	_ZNSt16_Sp_counted_baseILN9__gnu_cxx12_Lock_policyE2EED1Ev
	.set	_ZNSt16_Sp_counted_baseILN9__gnu_cxx12_Lock_policyE2EED1Ev,_ZNSt16_Sp_counted_baseILN9__gnu_cxx12_Lock_policyE2EED2Ev
	.text
	.p2align 4,,15
	.type	_ZNSt14_Function_base12_Ref_managerISt12_Bind_simpleIFZN5Paths18runMakePathsBufferERSt6vectorI4PathSaIS4_EEN14TimeSeparation8PositionEEUlvE_vEEE10_M_managerERSt9_Any_dataRKSE_St18_Manager_operation, @function
_ZNSt14_Function_base12_Ref_managerISt12_Bind_simpleIFZN5Paths18runMakePathsBufferERSt6vectorI4PathSaIS4_EEN14TimeSeparation8PositionEEUlvE_vEEE10_M_managerERSt9_Any_dataRKSE_St18_Manager_operation:
.LFB7062:
	.file 3 "/usr/include/c++/4.8/functional"
	.loc 3 1997 0
	.cfi_startproc
.LVL5:
	.loc 3 2000 0
	testl	%edx, %edx
	je	.L9
	cmpl	$1, %edx
	jne	.L19
.LVL6:
	.loc 3 2008 0
	movq	(%rsi), %rax
	movq	%rax, (%rdi)
.LVL7:
.L11:
	.loc 3 2016 0
	xorl	%eax, %eax
	ret
	.p2align 4,,10
	.p2align 3
.L19:
.LBB6762:
.LBB6763:
	.loc 3 1934 0
	cmpl	$2, %edx
	je	.L13
	testl	%edx, %edx
	jne	.L11
.LVL8:
	.loc 3 1938 0
	movq	$_ZTIPSt12_Bind_simpleIFZN5Paths18runMakePathsBufferERSt6vectorI4PathSaIS2_EEN14TimeSeparation8PositionEEUlvE_vEE, (%rdi)
	jmp	.L11
.LVL9:
	.p2align 4,,10
	.p2align 3
.L9:
.LBE6763:
.LBE6762:
	.loc 3 2004 0
	movq	$_ZTISt12_Bind_simpleIFZN5Paths18runMakePathsBufferERSt6vectorI4PathSaIS2_EEN14TimeSeparation8PositionEEUlvE_vEE, (%rdi)
	.loc 3 2016 0
	xorl	%eax, %eax
	ret
.LVL10:
	.p2align 4,,10
	.p2align 3
.L13:
.LBB6767:
.LBB6766:
.LBB6764:
.LBB6765:
	.loc 3 1902 0
	testq	%rdi, %rdi
	movq	(%rsi), %rax
.LVL11:
	je	.L11
	movq	%rax, (%rdi)
	jmp	.L11
.LBE6765:
.LBE6764:
.LBE6766:
.LBE6767:
	.cfi_endproc
.LFE7062:
	.size	_ZNSt14_Function_base12_Ref_managerISt12_Bind_simpleIFZN5Paths18runMakePathsBufferERSt6vectorI4PathSaIS4_EEN14TimeSeparation8PositionEEUlvE_vEEE10_M_managerERSt9_Any_dataRKSE_St18_Manager_operation, .-_ZNSt14_Function_base12_Ref_managerISt12_Bind_simpleIFZN5Paths18runMakePathsBufferERSt6vectorI4PathSaIS4_EEN14TimeSeparation8PositionEEUlvE_vEEE10_M_managerERSt9_Any_dataRKSE_St18_Manager_operation
	.align 2
	.p2align 4,,15
	.type	_ZNSt23_Sp_counted_ptr_inplaceINSt6thread5_ImplISt12_Bind_simpleIFZNSt13__future_base17_Async_state_implIS2_IFZN5Paths18runMakePathsBufferERSt6vectorI4PathSaIS7_EEN14TimeSeparation8PositionEEUlvE_vEEvEC1EOSF_EUlvE_vEEEESaISL_ELN9__gnu_cxx12_Lock_policyE2EED2Ev, @function
_ZNSt23_Sp_counted_ptr_inplaceINSt6thread5_ImplISt12_Bind_simpleIFZNSt13__future_base17_Async_state_implIS2_IFZN5Paths18runMakePathsBufferERSt6vectorI4PathSaIS7_EEN14TimeSeparation8PositionEEUlvE_vEEvEC1EOSF_EUlvE_vEEEESaISL_ELN9__gnu_cxx12_Lock_policyE2EED2Ev:
.LFB7230:
	.loc 2 403 0
	.cfi_startproc
.LVL12:
.LBB6768:
.LBB6769:
.LBB6770:
	.loc 2 114 0
	movq	$_ZTVSt16_Sp_counted_baseILN9__gnu_cxx12_Lock_policyE2EE+16, (%rdi)
	ret
.LBE6770:
.LBE6769:
.LBE6768:
	.cfi_endproc
.LFE7230:
	.size	_ZNSt23_Sp_counted_ptr_inplaceINSt6thread5_ImplISt12_Bind_simpleIFZNSt13__future_base17_Async_state_implIS2_IFZN5Paths18runMakePathsBufferERSt6vectorI4PathSaIS7_EEN14TimeSeparation8PositionEEUlvE_vEEvEC1EOSF_EUlvE_vEEEESaISL_ELN9__gnu_cxx12_Lock_policyE2EED2Ev, .-_ZNSt23_Sp_counted_ptr_inplaceINSt6thread5_ImplISt12_Bind_simpleIFZNSt13__future_base17_Async_state_implIS2_IFZN5Paths18runMakePathsBufferERSt6vectorI4PathSaIS7_EEN14TimeSeparation8PositionEEUlvE_vEEvEC1EOSF_EUlvE_vEEEESaISL_ELN9__gnu_cxx12_Lock_policyE2EED2Ev
	.set	_ZNSt23_Sp_counted_ptr_inplaceINSt6thread5_ImplISt12_Bind_simpleIFZNSt13__future_base17_Async_state_implIS2_IFZN5Paths18runMakePathsBufferERSt6vectorI4PathSaIS7_EEN14TimeSeparation8PositionEEUlvE_vEEvEC1EOSF_EUlvE_vEEEESaISL_ELN9__gnu_cxx12_Lock_policyE2EED1Ev,_ZNSt23_Sp_counted_ptr_inplaceINSt6thread5_ImplISt12_Bind_simpleIFZNSt13__future_base17_Async_state_implIS2_IFZN5Paths18runMakePathsBufferERSt6vectorI4PathSaIS7_EEN14TimeSeparation8PositionEEUlvE_vEEvEC1EOSF_EUlvE_vEEEESaISL_ELN9__gnu_cxx12_Lock_policyE2EED2Ev
	.align 2
	.p2align 4,,15
	.type	_ZNSt23_Sp_counted_ptr_inplaceINSt6thread5_ImplISt12_Bind_simpleIFZNSt13__future_base17_Async_state_implIS2_IFZN5Paths18runMakePathsBufferERSt6vectorI4PathSaIS7_EEN14TimeSeparation8PositionEEUlvE_vEEvEC1EOSF_EUlvE_vEEEESaISL_ELN9__gnu_cxx12_Lock_policyE2EE10_M_disposeEv, @function
_ZNSt23_Sp_counted_ptr_inplaceINSt6thread5_ImplISt12_Bind_simpleIFZNSt13__future_base17_Async_state_implIS2_IFZN5Paths18runMakePathsBufferERSt6vectorI4PathSaIS7_EEN14TimeSeparation8PositionEEUlvE_vEEvEC1EOSF_EUlvE_vEEEESaISL_ELN9__gnu_cxx12_Lock_policyE2EE10_M_disposeEv:
.LFB7233:
	.loc 2 406 0
	.cfi_startproc
.LVL13:
	.loc 2 407 0
	movq	16(%rdi), %rdi
.LVL14:
.LBB6771:
.LBB6772:
.LBB6773:
.LBB6774:
	.file 4 "/usr/include/c++/4.8/ext/new_allocator.h"
	.loc 4 124 0
	movq	(%rdi), %rax
	movq	(%rax), %rax
	jmp	*%rax
.LVL15:
.LBE6774:
.LBE6773:
.LBE6772:
.LBE6771:
	.cfi_endproc
.LFE7233:
	.size	_ZNSt23_Sp_counted_ptr_inplaceINSt6thread5_ImplISt12_Bind_simpleIFZNSt13__future_base17_Async_state_implIS2_IFZN5Paths18runMakePathsBufferERSt6vectorI4PathSaIS7_EEN14TimeSeparation8PositionEEUlvE_vEEvEC1EOSF_EUlvE_vEEEESaISL_ELN9__gnu_cxx12_Lock_policyE2EE10_M_disposeEv, .-_ZNSt23_Sp_counted_ptr_inplaceINSt6thread5_ImplISt12_Bind_simpleIFZNSt13__future_base17_Async_state_implIS2_IFZN5Paths18runMakePathsBufferERSt6vectorI4PathSaIS7_EEN14TimeSeparation8PositionEEUlvE_vEEvEC1EOSF_EUlvE_vEEEESaISL_ELN9__gnu_cxx12_Lock_policyE2EE10_M_disposeEv
	.align 2
	.p2align 4,,15
	.type	_ZNSt23_Sp_counted_ptr_inplaceINSt13__future_base15_Deferred_stateISt12_Bind_simpleIFZN5Paths18runMakePathsBufferERSt6vectorI4PathSaIS5_EEN14TimeSeparation8PositionEEUlvE_vEEvEESaISE_ELN9__gnu_cxx12_Lock_policyE2EED2Ev, @function
_ZNSt23_Sp_counted_ptr_inplaceINSt13__future_base15_Deferred_stateISt12_Bind_simpleIFZN5Paths18runMakePathsBufferERSt6vectorI4PathSaIS5_EEN14TimeSeparation8PositionEEUlvE_vEEvEESaISE_ELN9__gnu_cxx12_Lock_policyE2EED2Ev:
.LFB7238:
	.loc 2 403 0
	.cfi_startproc
.LVL16:
.LBB6775:
.LBB6776:
.LBB6777:
	.loc 2 114 0
	movq	$_ZTVSt16_Sp_counted_baseILN9__gnu_cxx12_Lock_policyE2EE+16, (%rdi)
	ret
.LBE6777:
.LBE6776:
.LBE6775:
	.cfi_endproc
.LFE7238:
	.size	_ZNSt23_Sp_counted_ptr_inplaceINSt13__future_base15_Deferred_stateISt12_Bind_simpleIFZN5Paths18runMakePathsBufferERSt6vectorI4PathSaIS5_EEN14TimeSeparation8PositionEEUlvE_vEEvEESaISE_ELN9__gnu_cxx12_Lock_policyE2EED2Ev, .-_ZNSt23_Sp_counted_ptr_inplaceINSt13__future_base15_Deferred_stateISt12_Bind_simpleIFZN5Paths18runMakePathsBufferERSt6vectorI4PathSaIS5_EEN14TimeSeparation8PositionEEUlvE_vEEvEESaISE_ELN9__gnu_cxx12_Lock_policyE2EED2Ev
	.set	_ZNSt23_Sp_counted_ptr_inplaceINSt13__future_base15_Deferred_stateISt12_Bind_simpleIFZN5Paths18runMakePathsBufferERSt6vectorI4PathSaIS5_EEN14TimeSeparation8PositionEEUlvE_vEEvEESaISE_ELN9__gnu_cxx12_Lock_policyE2EED1Ev,_ZNSt23_Sp_counted_ptr_inplaceINSt13__future_base15_Deferred_stateISt12_Bind_simpleIFZN5Paths18runMakePathsBufferERSt6vectorI4PathSaIS5_EEN14TimeSeparation8PositionEEUlvE_vEEvEESaISE_ELN9__gnu_cxx12_Lock_policyE2EED2Ev
	.align 2
	.p2align 4,,15
	.type	_ZNSt23_Sp_counted_ptr_inplaceINSt13__future_base17_Async_state_implISt12_Bind_simpleIFZN5Paths18runMakePathsBufferERSt6vectorI4PathSaIS5_EEN14TimeSeparation8PositionEEUlvE_vEEvEESaISE_ELN9__gnu_cxx12_Lock_policyE2EED2Ev, @function
_ZNSt23_Sp_counted_ptr_inplaceINSt13__future_base17_Async_state_implISt12_Bind_simpleIFZN5Paths18runMakePathsBufferERSt6vectorI4PathSaIS5_EEN14TimeSeparation8PositionEEUlvE_vEEvEESaISE_ELN9__gnu_cxx12_Lock_policyE2EED2Ev:
.LFB7245:
	.loc 2 403 0
	.cfi_startproc
.LVL17:
.LBB6778:
.LBB6779:
.LBB6780:
	.loc 2 114 0
	movq	$_ZTVSt16_Sp_counted_baseILN9__gnu_cxx12_Lock_policyE2EE+16, (%rdi)
	ret
.LBE6780:
.LBE6779:
.LBE6778:
	.cfi_endproc
.LFE7245:
	.size	_ZNSt23_Sp_counted_ptr_inplaceINSt13__future_base17_Async_state_implISt12_Bind_simpleIFZN5Paths18runMakePathsBufferERSt6vectorI4PathSaIS5_EEN14TimeSeparation8PositionEEUlvE_vEEvEESaISE_ELN9__gnu_cxx12_Lock_policyE2EED2Ev, .-_ZNSt23_Sp_counted_ptr_inplaceINSt13__future_base17_Async_state_implISt12_Bind_simpleIFZN5Paths18runMakePathsBufferERSt6vectorI4PathSaIS5_EEN14TimeSeparation8PositionEEUlvE_vEEvEESaISE_ELN9__gnu_cxx12_Lock_policyE2EED2Ev
	.set	_ZNSt23_Sp_counted_ptr_inplaceINSt13__future_base17_Async_state_implISt12_Bind_simpleIFZN5Paths18runMakePathsBufferERSt6vectorI4PathSaIS5_EEN14TimeSeparation8PositionEEUlvE_vEEvEESaISE_ELN9__gnu_cxx12_Lock_policyE2EED1Ev,_ZNSt23_Sp_counted_ptr_inplaceINSt13__future_base17_Async_state_implISt12_Bind_simpleIFZN5Paths18runMakePathsBufferERSt6vectorI4PathSaIS5_EEN14TimeSeparation8PositionEEUlvE_vEEvEESaISE_ELN9__gnu_cxx12_Lock_policyE2EED2Ev
	.align 2
	.p2align 4,,15
	.type	_ZNSt23_Sp_counted_ptr_inplaceINSt13__future_base17_Async_state_implISt12_Bind_simpleIFZN5Paths18runMakePathsBufferERSt6vectorI4PathSaIS5_EEN14TimeSeparation8PositionEEUlvE_vEEvEESaISE_ELN9__gnu_cxx12_Lock_policyE2EED0Ev, @function
_ZNSt23_Sp_counted_ptr_inplaceINSt13__future_base17_Async_state_implISt12_Bind_simpleIFZN5Paths18runMakePathsBufferERSt6vectorI4PathSaIS5_EEN14TimeSeparation8PositionEEUlvE_vEEvEESaISE_ELN9__gnu_cxx12_Lock_policyE2EED0Ev:
.LFB7247:
	.loc 2 403 0
	.cfi_startproc
.LVL18:
.LBB6781:
.LBB6782:
.LBB6783:
.LBB6784:
	.loc 2 114 0
	movq	$_ZTVSt16_Sp_counted_baseILN9__gnu_cxx12_Lock_policyE2EE+16, (%rdi)
.LBE6784:
.LBE6783:
.LBE6782:
.LBE6781:
	.loc 2 403 0
	jmp	_ZdlPv
.LVL19:
	.cfi_endproc
.LFE7247:
	.size	_ZNSt23_Sp_counted_ptr_inplaceINSt13__future_base17_Async_state_implISt12_Bind_simpleIFZN5Paths18runMakePathsBufferERSt6vectorI4PathSaIS5_EEN14TimeSeparation8PositionEEUlvE_vEEvEESaISE_ELN9__gnu_cxx12_Lock_policyE2EED0Ev, .-_ZNSt23_Sp_counted_ptr_inplaceINSt13__future_base17_Async_state_implISt12_Bind_simpleIFZN5Paths18runMakePathsBufferERSt6vectorI4PathSaIS5_EEN14TimeSeparation8PositionEEUlvE_vEEvEESaISE_ELN9__gnu_cxx12_Lock_policyE2EED0Ev
	.align 2
	.p2align 4,,15
	.type	_ZNSt23_Sp_counted_ptr_inplaceINSt6thread5_ImplISt12_Bind_simpleIFZNSt13__future_base17_Async_state_implIS2_IFZN5Paths18runMakePathsBufferERSt6vectorI4PathSaIS7_EEN14TimeSeparation8PositionEEUlvE_vEEvEC1EOSF_EUlvE_vEEEESaISL_ELN9__gnu_cxx12_Lock_policyE2EE10_M_destroyEv, @function
_ZNSt23_Sp_counted_ptr_inplaceINSt6thread5_ImplISt12_Bind_simpleIFZNSt13__future_base17_Async_state_implIS2_IFZN5Paths18runMakePathsBufferERSt6vectorI4PathSaIS7_EEN14TimeSeparation8PositionEEUlvE_vEEvEC1EOSF_EUlvE_vEEEESaISL_ELN9__gnu_cxx12_Lock_policyE2EE10_M_destroyEv:
.LFB7234:
	.loc 2 411 0
	.cfi_startproc
.LVL20:
.LBB6785:
.LBB6786:
.LBB6787:
.LBB6788:
.LBB6789:
.LBB6790:
.LBB6791:
.LBB6792:
	.loc 2 114 0
	movq	$_ZTVSt16_Sp_counted_baseILN9__gnu_cxx12_Lock_policyE2EE+16, (%rdi)
.LVL21:
.LBE6792:
.LBE6791:
.LBE6790:
.LBE6789:
.LBE6788:
.LBE6787:
.LBE6786:
.LBB6793:
.LBB6794:
.LBB6795:
	.loc 4 110 0
	jmp	_ZdlPv
.LVL22:
.LBE6795:
.LBE6794:
.LBE6793:
.LBE6785:
	.cfi_endproc
.LFE7234:
	.size	_ZNSt23_Sp_counted_ptr_inplaceINSt6thread5_ImplISt12_Bind_simpleIFZNSt13__future_base17_Async_state_implIS2_IFZN5Paths18runMakePathsBufferERSt6vectorI4PathSaIS7_EEN14TimeSeparation8PositionEEUlvE_vEEvEC1EOSF_EUlvE_vEEEESaISL_ELN9__gnu_cxx12_Lock_policyE2EE10_M_destroyEv, .-_ZNSt23_Sp_counted_ptr_inplaceINSt6thread5_ImplISt12_Bind_simpleIFZNSt13__future_base17_Async_state_implIS2_IFZN5Paths18runMakePathsBufferERSt6vectorI4PathSaIS7_EEN14TimeSeparation8PositionEEUlvE_vEEvEC1EOSF_EUlvE_vEEEESaISL_ELN9__gnu_cxx12_Lock_policyE2EE10_M_destroyEv
	.align 2
	.p2align 4,,15
	.type	_ZNSt23_Sp_counted_ptr_inplaceINSt6thread5_ImplISt12_Bind_simpleIFZNSt13__future_base17_Async_state_implIS2_IFZN5Paths18runMakePathsBufferERSt6vectorI4PathSaIS7_EEN14TimeSeparation8PositionEEUlvE_vEEvEC1EOSF_EUlvE_vEEEESaISL_ELN9__gnu_cxx12_Lock_policyE2EED0Ev, @function
_ZNSt23_Sp_counted_ptr_inplaceINSt6thread5_ImplISt12_Bind_simpleIFZNSt13__future_base17_Async_state_implIS2_IFZN5Paths18runMakePathsBufferERSt6vectorI4PathSaIS7_EEN14TimeSeparation8PositionEEUlvE_vEEvEC1EOSF_EUlvE_vEEEESaISL_ELN9__gnu_cxx12_Lock_policyE2EED0Ev:
.LFB7232:
	.loc 2 403 0
	.cfi_startproc
.LVL23:
.LBB6796:
.LBB6797:
.LBB6798:
.LBB6799:
	.loc 2 114 0
	movq	$_ZTVSt16_Sp_counted_baseILN9__gnu_cxx12_Lock_policyE2EE+16, (%rdi)
.LBE6799:
.LBE6798:
.LBE6797:
.LBE6796:
	.loc 2 403 0
	jmp	_ZdlPv
.LVL24:
	.cfi_endproc
.LFE7232:
	.size	_ZNSt23_Sp_counted_ptr_inplaceINSt6thread5_ImplISt12_Bind_simpleIFZNSt13__future_base17_Async_state_implIS2_IFZN5Paths18runMakePathsBufferERSt6vectorI4PathSaIS7_EEN14TimeSeparation8PositionEEUlvE_vEEvEC1EOSF_EUlvE_vEEEESaISL_ELN9__gnu_cxx12_Lock_policyE2EED0Ev, .-_ZNSt23_Sp_counted_ptr_inplaceINSt6thread5_ImplISt12_Bind_simpleIFZNSt13__future_base17_Async_state_implIS2_IFZN5Paths18runMakePathsBufferERSt6vectorI4PathSaIS7_EEN14TimeSeparation8PositionEEUlvE_vEEvEC1EOSF_EUlvE_vEEEESaISL_ELN9__gnu_cxx12_Lock_policyE2EED0Ev
	.align 2
	.p2align 4,,15
	.type	_ZNSt23_Sp_counted_ptr_inplaceINSt13__future_base17_Async_state_implISt12_Bind_simpleIFZN5Paths18runMakePathsBufferERSt6vectorI4PathSaIS5_EEN14TimeSeparation8PositionEEUlvE_vEEvEESaISE_ELN9__gnu_cxx12_Lock_policyE2EE10_M_destroyEv, @function
_ZNSt23_Sp_counted_ptr_inplaceINSt13__future_base17_Async_state_implISt12_Bind_simpleIFZN5Paths18runMakePathsBufferERSt6vectorI4PathSaIS5_EEN14TimeSeparation8PositionEEUlvE_vEEvEESaISE_ELN9__gnu_cxx12_Lock_policyE2EE10_M_destroyEv:
.LFB7249:
	.loc 2 411 0
	.cfi_startproc
.LVL25:
.LBB6800:
.LBB6801:
.LBB6802:
.LBB6803:
.LBB6804:
.LBB6805:
.LBB6806:
.LBB6807:
	.loc 2 114 0
	movq	$_ZTVSt16_Sp_counted_baseILN9__gnu_cxx12_Lock_policyE2EE+16, (%rdi)
.LVL26:
.LBE6807:
.LBE6806:
.LBE6805:
.LBE6804:
.LBE6803:
.LBE6802:
.LBE6801:
.LBB6808:
.LBB6809:
.LBB6810:
	.loc 4 110 0
	jmp	_ZdlPv
.LVL27:
.LBE6810:
.LBE6809:
.LBE6808:
.LBE6800:
	.cfi_endproc
.LFE7249:
	.size	_ZNSt23_Sp_counted_ptr_inplaceINSt13__future_base17_Async_state_implISt12_Bind_simpleIFZN5Paths18runMakePathsBufferERSt6vectorI4PathSaIS5_EEN14TimeSeparation8PositionEEUlvE_vEEvEESaISE_ELN9__gnu_cxx12_Lock_policyE2EE10_M_destroyEv, .-_ZNSt23_Sp_counted_ptr_inplaceINSt13__future_base17_Async_state_implISt12_Bind_simpleIFZN5Paths18runMakePathsBufferERSt6vectorI4PathSaIS5_EEN14TimeSeparation8PositionEEUlvE_vEEvEESaISE_ELN9__gnu_cxx12_Lock_policyE2EE10_M_destroyEv
	.align 2
	.p2align 4,,15
	.type	_ZNSt23_Sp_counted_ptr_inplaceINSt13__future_base15_Deferred_stateISt12_Bind_simpleIFZN5Paths18runMakePathsBufferERSt6vectorI4PathSaIS5_EEN14TimeSeparation8PositionEEUlvE_vEEvEESaISE_ELN9__gnu_cxx12_Lock_policyE2EED0Ev, @function
_ZNSt23_Sp_counted_ptr_inplaceINSt13__future_base15_Deferred_stateISt12_Bind_simpleIFZN5Paths18runMakePathsBufferERSt6vectorI4PathSaIS5_EEN14TimeSeparation8PositionEEUlvE_vEEvEESaISE_ELN9__gnu_cxx12_Lock_policyE2EED0Ev:
.LFB7240:
	.loc 2 403 0
	.cfi_startproc
.LVL28:
.LBB6811:
.LBB6812:
.LBB6813:
.LBB6814:
	.loc 2 114 0
	movq	$_ZTVSt16_Sp_counted_baseILN9__gnu_cxx12_Lock_policyE2EE+16, (%rdi)
.LBE6814:
.LBE6813:
.LBE6812:
.LBE6811:
	.loc 2 403 0
	jmp	_ZdlPv
.LVL29:
	.cfi_endproc
.LFE7240:
	.size	_ZNSt23_Sp_counted_ptr_inplaceINSt13__future_base15_Deferred_stateISt12_Bind_simpleIFZN5Paths18runMakePathsBufferERSt6vectorI4PathSaIS5_EEN14TimeSeparation8PositionEEUlvE_vEEvEESaISE_ELN9__gnu_cxx12_Lock_policyE2EED0Ev, .-_ZNSt23_Sp_counted_ptr_inplaceINSt13__future_base15_Deferred_stateISt12_Bind_simpleIFZN5Paths18runMakePathsBufferERSt6vectorI4PathSaIS5_EEN14TimeSeparation8PositionEEUlvE_vEEvEESaISE_ELN9__gnu_cxx12_Lock_policyE2EED0Ev
	.align 2
	.p2align 4,,15
	.type	_ZNSt23_Sp_counted_ptr_inplaceINSt13__future_base15_Deferred_stateISt12_Bind_simpleIFZN5Paths18runMakePathsBufferERSt6vectorI4PathSaIS5_EEN14TimeSeparation8PositionEEUlvE_vEEvEESaISE_ELN9__gnu_cxx12_Lock_policyE2EE10_M_destroyEv, @function
_ZNSt23_Sp_counted_ptr_inplaceINSt13__future_base15_Deferred_stateISt12_Bind_simpleIFZN5Paths18runMakePathsBufferERSt6vectorI4PathSaIS5_EEN14TimeSeparation8PositionEEUlvE_vEEvEESaISE_ELN9__gnu_cxx12_Lock_policyE2EE10_M_destroyEv:
.LFB7242:
	.loc 2 411 0
	.cfi_startproc
.LVL30:
.LBB6815:
.LBB6816:
.LBB6817:
.LBB6818:
.LBB6819:
.LBB6820:
.LBB6821:
.LBB6822:
	.loc 2 114 0
	movq	$_ZTVSt16_Sp_counted_baseILN9__gnu_cxx12_Lock_policyE2EE+16, (%rdi)
.LVL31:
.LBE6822:
.LBE6821:
.LBE6820:
.LBE6819:
.LBE6818:
.LBE6817:
.LBE6816:
.LBB6823:
.LBB6824:
.LBB6825:
	.loc 4 110 0
	jmp	_ZdlPv
.LVL32:
.LBE6825:
.LBE6824:
.LBE6823:
.LBE6815:
	.cfi_endproc
.LFE7242:
	.size	_ZNSt23_Sp_counted_ptr_inplaceINSt13__future_base15_Deferred_stateISt12_Bind_simpleIFZN5Paths18runMakePathsBufferERSt6vectorI4PathSaIS5_EEN14TimeSeparation8PositionEEUlvE_vEEvEESaISE_ELN9__gnu_cxx12_Lock_policyE2EE10_M_destroyEv, .-_ZNSt23_Sp_counted_ptr_inplaceINSt13__future_base15_Deferred_stateISt12_Bind_simpleIFZN5Paths18runMakePathsBufferERSt6vectorI4PathSaIS5_EEN14TimeSeparation8PositionEEUlvE_vEEvEESaISE_ELN9__gnu_cxx12_Lock_policyE2EE10_M_destroyEv
	.section	.text._ZNSt16_Sp_counted_baseILN9__gnu_cxx12_Lock_policyE2EED0Ev,"axG",@progbits,_ZNSt16_Sp_counted_baseILN9__gnu_cxx12_Lock_policyE2EED0Ev,comdat
	.align 2
	.p2align 4,,15
	.weak	_ZNSt16_Sp_counted_baseILN9__gnu_cxx12_Lock_policyE2EED0Ev
	.type	_ZNSt16_Sp_counted_baseILN9__gnu_cxx12_Lock_policyE2EED0Ev, @function
_ZNSt16_Sp_counted_baseILN9__gnu_cxx12_Lock_policyE2EED0Ev:
.LFB6423:
	.loc 2 113 0
	.cfi_startproc
.LVL33:
.LBB6826:
.LBB6827:
	.loc 2 114 0
	movq	$_ZTVSt16_Sp_counted_baseILN9__gnu_cxx12_Lock_policyE2EE+16, (%rdi)
.LBE6827:
.LBE6826:
	jmp	_ZdlPv
.LVL34:
	.cfi_endproc
.LFE6423:
	.size	_ZNSt16_Sp_counted_baseILN9__gnu_cxx12_Lock_policyE2EED0Ev, .-_ZNSt16_Sp_counted_baseILN9__gnu_cxx12_Lock_policyE2EED0Ev
	.text
	.align 2
	.p2align 4,,15
	.type	_ZNSt13__future_base15_Deferred_stateISt12_Bind_simpleIFZN5Paths18runMakePathsBufferERSt6vectorI4PathSaIS4_EEN14TimeSeparation8PositionEEUlvE_vEEvED2Ev, @function
_ZNSt13__future_base15_Deferred_stateISt12_Bind_simpleIFZN5Paths18runMakePathsBufferERSt6vectorI4PathSaIS4_EEN14TimeSeparation8PositionEEUlvE_vEEvED2Ev:
.LFB7205:
	.loc 1 1447 0
	.cfi_startproc
	.cfi_personality 0x3,__gxx_personality_v0
	.cfi_lsda 0x3,.LLSDA7205
.LVL35:
	pushq	%rbx
	.cfi_def_cfa_offset 16
	.cfi_offset 3, -16
	.loc 1 1447 0
	movq	%rdi, %rbx
.LBB6833:
	movq	$_ZTVNSt13__future_base15_Deferred_stateISt12_Bind_simpleIFZN5Paths18runMakePathsBufferERSt6vectorI4PathSaIS4_EEN14TimeSeparation8PositionEEUlvE_vEEvEE+16, (%rdi)
.LVL36:
.LBB6834:
.LBB6835:
	.file 5 "/usr/include/c++/4.8/bits/unique_ptr.h"
	.loc 5 183 0
	movq	112(%rdi), %rdi
.LVL37:
	testq	%rdi, %rdi
	je	.L32
.LVL38:
.LBB6836:
.LBB6837:
	.loc 1 196 0
	movq	(%rdi), %rax
	call	*(%rax)
.LVL39:
.L32:
.LBE6837:
.LBE6836:
	.loc 5 185 0
	movq	$0, 112(%rbx)
.LBE6835:
.LBE6834:
	.loc 1 1447 0
	movq	%rbx, %rdi
.LBE6833:
	popq	%rbx
	.cfi_def_cfa_offset 8
.LVL40:
.LBB6838:
	jmp	_ZNSt13__future_base11_State_baseD2Ev
.LVL41:
.LBE6838:
	.cfi_endproc
.LFE7205:
	.globl	__gxx_personality_v0
	.section	.gcc_except_table,"a",@progbits
.LLSDA7205:
	.byte	0xff
	.byte	0xff
	.byte	0x1
	.uleb128 .LLSDACSE7205-.LLSDACSB7205
.LLSDACSB7205:
.LLSDACSE7205:
	.text
	.size	_ZNSt13__future_base15_Deferred_stateISt12_Bind_simpleIFZN5Paths18runMakePathsBufferERSt6vectorI4PathSaIS4_EEN14TimeSeparation8PositionEEUlvE_vEEvED2Ev, .-_ZNSt13__future_base15_Deferred_stateISt12_Bind_simpleIFZN5Paths18runMakePathsBufferERSt6vectorI4PathSaIS4_EEN14TimeSeparation8PositionEEUlvE_vEEvED2Ev
	.set	_ZNSt13__future_base15_Deferred_stateISt12_Bind_simpleIFZN5Paths18runMakePathsBufferERSt6vectorI4PathSaIS4_EEN14TimeSeparation8PositionEEUlvE_vEEvED1Ev,_ZNSt13__future_base15_Deferred_stateISt12_Bind_simpleIFZN5Paths18runMakePathsBufferERSt6vectorI4PathSaIS4_EEN14TimeSeparation8PositionEEUlvE_vEEvED2Ev
	.section	.text._ZNSt13__future_base19_Async_state_commonD2Ev,"axG",@progbits,_ZNSt13__future_base19_Async_state_commonD5Ev,comdat
	.align 2
	.p2align 4,,15
	.weak	_ZNSt13__future_base19_Async_state_commonD2Ev
	.type	_ZNSt13__future_base19_Async_state_commonD2Ev, @function
_ZNSt13__future_base19_Async_state_commonD2Ev:
.LFB6963:
	.loc 1 1475 0
	.cfi_startproc
.LVL42:
.LBB6843:
.LBB6844:
.LBB6845:
.LBB6846:
	.file 6 "/usr/include/c++/4.8/thread"
	.loc 6 142 0
	cmpq	$0, 112(%rdi)
.LBE6846:
.LBE6845:
.LBE6844:
	.loc 1 1475 0
	movq	$_ZTVNSt13__future_base19_Async_state_commonE+16, (%rdi)
.LVL43:
.LBB6851:
.LBB6849:
.LBB6847:
	.loc 6 142 0
	jne	.L40
.LBE6847:
.LBE6849:
.LBE6851:
	.loc 1 1475 0
	jmp	_ZNSt13__future_base11_State_baseD2Ev
.LVL44:
.L40:
.LBE6843:
	pushq	%rax
	.cfi_def_cfa_offset 16
.LVL45:
.LBB6853:
.LBB6852:
.LBB6850:
.LBB6848:
	.loc 6 143 0
	call	_ZSt9terminatev
.LVL46:
.LBE6848:
.LBE6850:
.LBE6852:
.LBE6853:
	.cfi_endproc
.LFE6963:
	.size	_ZNSt13__future_base19_Async_state_commonD2Ev, .-_ZNSt13__future_base19_Async_state_commonD2Ev
	.weak	_ZNSt13__future_base19_Async_state_commonD1Ev
	.set	_ZNSt13__future_base19_Async_state_commonD1Ev,_ZNSt13__future_base19_Async_state_commonD2Ev
	.section	.text._ZNSt17_Function_handlerIFSt10unique_ptrINSt13__future_base12_Result_baseENS2_8_DeleterEEvENS1_12_Task_setterIS0_INS1_7_ResultIvEES3_EvEEE9_M_invokeERKSt9_Any_data,"axG",@progbits,_ZNSt17_Function_handlerIFSt10unique_ptrINSt13__future_base12_Result_baseENS2_8_DeleterEEvENS1_12_Task_setterIS0_INS1_7_ResultIvEES3_EvEEE9_M_invokeERKSt9_Any_data,comdat
	.p2align 4,,15
	.weak	_ZNSt17_Function_handlerIFSt10unique_ptrINSt13__future_base12_Result_baseENS2_8_DeleterEEvENS1_12_Task_setterIS0_INS1_7_ResultIvEES3_EvEEE9_M_invokeERKSt9_Any_data
	.type	_ZNSt17_Function_handlerIFSt10unique_ptrINSt13__future_base12_Result_baseENS2_8_DeleterEEvENS1_12_Task_setterIS0_INS1_7_ResultIvEES3_EvEEE9_M_invokeERKSt9_Any_data, @function
_ZNSt17_Function_handlerIFSt10unique_ptrINSt13__future_base12_Result_baseENS2_8_DeleterEEvENS1_12_Task_setterIS0_INS1_7_ResultIvEES3_EvEEE9_M_invokeERKSt9_Any_data:
.LFB7028:
	.loc 3 2054 0
	.cfi_startproc
	.cfi_personality 0x3,__gxx_personality_v0
	.cfi_lsda 0x3,.LLSDA7028
.LVL47:
	pushq	%rbp
	.cfi_def_cfa_offset 16
	.cfi_offset 6, -16
	movq	%rdi, %rbp
	pushq	%rbx
	.cfi_def_cfa_offset 24
	.cfi_offset 3, -24
	subq	$40, %rsp
	.cfi_def_cfa_offset 64
.LBB6885:
.LBB6886:
	.loc 3 1893 0
	movq	(%rsi), %rbx
.LVL48:
.LBE6886:
.LBE6885:
.LBB6887:
.LBB6888:
.LBB6889:
.LBB6890:
	.loc 3 2469 0
	cmpq	$0, 24(%rbx)
	je	.L48
	.loc 3 2471 0
	leaq	8(%rbx), %rdi
.LVL49:
.LEHB0:
	call	*32(%rbx)
.LVL50:
.L44:
.LBE6890:
.LBE6889:
	.loc 1 1241 0
	movq	(%rbx), %rax
.LVL51:
.LBB6892:
.LBB6893:
.LBB6894:
.LBB6895:
.LBB6896:
	.loc 5 234 0
	movq	(%rax), %rdx
.LVL52:
.LBE6896:
.LBE6895:
	.loc 5 252 0
	movq	$0, (%rax)
.LVL53:
.LBE6894:
.LBE6893:
.LBE6892:
.LBE6888:
.LBE6887:
	.loc 3 2058 0
	movq	%rbp, %rax
.LVL54:
.LBB6912:
.LBB6913:
.LBB6914:
.LBB6915:
.LBB6916:
	.file 7 "/usr/include/c++/4.8/tuple"
	.loc 7 142 0
	movq	%rdx, 0(%rbp)
.LVL55:
.LBE6916:
.LBE6915:
.LBE6914:
.LBE6913:
.LBE6912:
	.loc 3 2058 0
	addq	$40, %rsp
	.cfi_remember_state
	.cfi_def_cfa_offset 24
	popq	%rbx
	.cfi_def_cfa_offset 16
.LVL56:
	popq	%rbp
	.cfi_def_cfa_offset 8
.LVL57:
	ret
.LVL58:
.L48:
	.cfi_restore_state
.LBB6917:
.LBB6911:
.LBB6897:
.LBB6891:
	.loc 3 2470 0
	call	_ZSt25__throw_bad_function_callv
.LEHE0:
.LVL59:
.L45:
.LBE6891:
.LBE6897:
	.loc 1 1237 0
	movq	%rax, %rdi
	call	__cxa_begin_catch
.LVL60:
	.loc 1 1239 0
	movq	%rsp, %rdi
	call	_ZSt17current_exceptionv
.LVL61:
.LBB6898:
.LBB6899:
.LBB6900:
	.loc 5 234 0
	movq	(%rbx), %rax
.LBE6900:
.LBE6899:
.LBE6898:
.LBB6901:
.LBB6902:
	.file 8 "/usr/include/c++/4.8/bits/exception_ptr.h"
	.loc 8 118 0
	leaq	16(%rsp), %rdi
.LBE6902:
.LBE6901:
	.loc 1 1239 0
	movq	(%rax), %rsi
.LBB6909:
.LBB6907:
.LBB6903:
.LBB6904:
	.loc 8 100 0
	movq	(%rsp), %rax
	.loc 8 101 0
	movq	$0, (%rsp)
.LVL62:
.LBE6904:
.LBE6903:
.LBE6907:
.LBE6909:
	.loc 1 1239 0
	addq	$8, %rsi
.LVL63:
.LBB6910:
.LBB6908:
.LBB6906:
.LBB6905:
	.loc 8 100 0
	movq	%rax, 16(%rsp)
.LBE6905:
.LBE6906:
	.loc 8 118 0
	call	_ZNSt15__exception_ptr13exception_ptr4swapERS0_
.LVL64:
	leaq	16(%rsp), %rdi
.LVL65:
	call	_ZNSt15__exception_ptr13exception_ptrD1Ev
.LVL66:
.LBE6908:
.LBE6910:
	.loc 1 1239 0
	movq	%rsp, %rdi
	call	_ZNSt15__exception_ptr13exception_ptrD1Ev
.LVL67:
.LEHB1:
	.loc 1 1237 0
	call	__cxa_end_catch
.LEHE1:
.LVL68:
	.p2align 4,,2
	jmp	.L44
.LBE6911:
.LBE6917:
	.cfi_endproc
.LFE7028:
	.section	.gcc_except_table
	.align 4
.LLSDA7028:
	.byte	0xff
	.byte	0x3
	.uleb128 .LLSDATT7028-.LLSDATTD7028
.LLSDATTD7028:
	.byte	0x1
	.uleb128 .LLSDACSE7028-.LLSDACSB7028
.LLSDACSB7028:
	.uleb128 .LEHB0-.LFB7028
	.uleb128 .LEHE0-.LEHB0
	.uleb128 .L45-.LFB7028
	.uleb128 0x1
	.uleb128 .LEHB1-.LFB7028
	.uleb128 .LEHE1-.LEHB1
	.uleb128 0
	.uleb128 0
.LLSDACSE7028:
	.byte	0x1
	.byte	0
	.align 4
	.long	0

.LLSDATT7028:
	.section	.text._ZNSt17_Function_handlerIFSt10unique_ptrINSt13__future_base12_Result_baseENS2_8_DeleterEEvENS1_12_Task_setterIS0_INS1_7_ResultIvEES3_EvEEE9_M_invokeERKSt9_Any_data,"axG",@progbits,_ZNSt17_Function_handlerIFSt10unique_ptrINSt13__future_base12_Result_baseENS2_8_DeleterEEvENS1_12_Task_setterIS0_INS1_7_ResultIvEES3_EvEEE9_M_invokeERKSt9_Any_data,comdat
	.size	_ZNSt17_Function_handlerIFSt10unique_ptrINSt13__future_base12_Result_baseENS2_8_DeleterEEvENS1_12_Task_setterIS0_INS1_7_ResultIvEES3_EvEEE9_M_invokeERKSt9_Any_data, .-_ZNSt17_Function_handlerIFSt10unique_ptrINSt13__future_base12_Result_baseENS2_8_DeleterEEvENS1_12_Task_setterIS0_INS1_7_ResultIvEES3_EvEEE9_M_invokeERKSt9_Any_data
	.section	.text._ZNSt13__future_base7_ResultIvED2Ev,"axG",@progbits,_ZNSt13__future_base7_ResultIvED5Ev,comdat
	.align 2
	.p2align 4,,15
	.weak	_ZNSt13__future_base7_ResultIvED2Ev
	.type	_ZNSt13__future_base7_ResultIvED2Ev, @function
_ZNSt13__future_base7_ResultIvED2Ev:
.LFB7209:
	.loc 1 539 0
	.cfi_startproc
.LVL69:
.LBB6918:
	.loc 1 539 0
	movq	$_ZTVNSt13__future_base7_ResultIvEE+16, (%rdi)
	jmp	_ZNSt13__future_base12_Result_baseD2Ev
.LVL70:
.LBE6918:
	.cfi_endproc
.LFE7209:
	.size	_ZNSt13__future_base7_ResultIvED2Ev, .-_ZNSt13__future_base7_ResultIvED2Ev
	.weak	_ZNSt13__future_base7_ResultIvED1Ev
	.set	_ZNSt13__future_base7_ResultIvED1Ev,_ZNSt13__future_base7_ResultIvED2Ev
	.section	.text._ZNSt13__future_base7_ResultIvED0Ev,"axG",@progbits,_ZNSt13__future_base7_ResultIvED0Ev,comdat
	.align 2
	.p2align 4,,15
	.weak	_ZNSt13__future_base7_ResultIvED0Ev
	.type	_ZNSt13__future_base7_ResultIvED0Ev, @function
_ZNSt13__future_base7_ResultIvED0Ev:
.LFB7211:
	.loc 1 539 0
	.cfi_startproc
.LVL71:
	pushq	%rbx
	.cfi_def_cfa_offset 16
	.cfi_offset 3, -16
	.loc 1 539 0
	movq	%rdi, %rbx
.LBB6919:
.LBB6920:
	movq	$_ZTVNSt13__future_base7_ResultIvEE+16, (%rdi)
	call	_ZNSt13__future_base12_Result_baseD2Ev
.LVL72:
.LBE6920:
.LBE6919:
	movq	%rbx, %rdi
	popq	%rbx
	.cfi_def_cfa_offset 8
.LVL73:
	jmp	_ZdlPv
.LVL74:
	.cfi_endproc
.LFE7211:
	.size	_ZNSt13__future_base7_ResultIvED0Ev, .-_ZNSt13__future_base7_ResultIvED0Ev
	.section	.text.unlikely,"ax",@progbits
	.type	_ZStlsISt11char_traitsIcEERSt13basic_ostreamIcT_ES5_PKc.part.64, @function
_ZStlsISt11char_traitsIcEERSt13basic_ostreamIcT_ES5_PKc.part.64:
.LFB7356:
	.file 9 "/usr/include/c++/4.8/ostream"
	.loc 9 530 0
	.cfi_startproc
.LVL75:
	pushq	%rax
	.cfi_def_cfa_offset 16
	.loc 9 533 0
	movq	(%rdi), %rax
	addq	-24(%rax), %rdi
.LVL76:
.LBB6927:
.LBB6928:
.LBB6929:
.LBB6930:
	.file 10 "/usr/include/c++/4.8/bits/ios_base.h"
	.loc 10 158 0
	movl	32(%rdi), %esi
	orl	$1, %esi
.LBE6930:
.LBE6929:
	.file 11 "/usr/include/c++/4.8/bits/basic_ios.h"
	.loc 11 152 0
	call	_ZNSt9basic_iosIcSt11char_traitsIcEE5clearESt12_Ios_Iostate
.LVL77:
.LBE6928:
.LBE6927:
	.loc 9 538 0
	popq	%rdx
	.cfi_def_cfa_offset 8
	ret
	.cfi_endproc
.LFE7356:
	.size	_ZStlsISt11char_traitsIcEERSt13basic_ostreamIcT_ES5_PKc.part.64, .-_ZStlsISt11char_traitsIcEERSt13basic_ostreamIcT_ES5_PKc.part.64
	.text
	.align 2
	.p2align 4,,15
	.type	_ZNSt23_Sp_counted_ptr_inplaceINSt13__future_base17_Async_state_implISt12_Bind_simpleIFZN5Paths18runMakePathsBufferERSt6vectorI4PathSaIS5_EEN14TimeSeparation8PositionEEUlvE_vEEvEESaISE_ELN9__gnu_cxx12_Lock_policyE2EE14_M_get_deleterERKSt9type_info, @function
_ZNSt23_Sp_counted_ptr_inplaceINSt13__future_base17_Async_state_implISt12_Bind_simpleIFZN5Paths18runMakePathsBufferERSt6vectorI4PathSaIS5_EEN14TimeSeparation8PositionEEUlvE_vEEvEESaISE_ELN9__gnu_cxx12_Lock_policyE2EE14_M_get_deleterERKSt9type_info:
.LFB7250:
	.loc 2 422 0
	.cfi_startproc
.LVL78:
	.loc 2 422 0
	movq	8(%rsi), %rsi
.LVL79:
	movq	%rdi, %r8
.LBB6933:
.LBB6934:
	.file 12 "/usr/include/c++/4.8/typeinfo"
	.loc 12 123 0
	cmpq	$_ZTSSt19_Sp_make_shared_tag, %rsi
	je	.L55
.LBE6934:
.LBE6933:
	.loc 2 427 0
	xorl	%eax, %eax
.LBB6936:
.LBB6935:
	.loc 12 123 0
	cmpb	$42, (%rsi)
	je	.L62
	.loc 12 124 0
	movl	$_ZTSSt19_Sp_make_shared_tag, %edi
.LVL80:
	movl	$24, %ecx
	.loc 12 123 0
	repz cmpsb
	je	.L55
.L62:
.LBE6935:
.LBE6936:
	.loc 2 431 0
	rep ret
	.p2align 4,,10
	.p2align 3
.L55:
	.loc 2 427 0
	leaq	24(%r8), %rax
	.loc 2 431 0
	ret
	.cfi_endproc
.LFE7250:
	.size	_ZNSt23_Sp_counted_ptr_inplaceINSt13__future_base17_Async_state_implISt12_Bind_simpleIFZN5Paths18runMakePathsBufferERSt6vectorI4PathSaIS5_EEN14TimeSeparation8PositionEEUlvE_vEEvEESaISE_ELN9__gnu_cxx12_Lock_policyE2EE14_M_get_deleterERKSt9type_info, .-_ZNSt23_Sp_counted_ptr_inplaceINSt13__future_base17_Async_state_implISt12_Bind_simpleIFZN5Paths18runMakePathsBufferERSt6vectorI4PathSaIS5_EEN14TimeSeparation8PositionEEUlvE_vEEvEESaISE_ELN9__gnu_cxx12_Lock_policyE2EE14_M_get_deleterERKSt9type_info
	.section	.text._ZSt16__once_call_implISt12_Bind_simpleIFSt7_Mem_fnIMSt6threadFvvEESt17reference_wrapperIS2_EEEEvv,"axG",@progbits,_ZSt16__once_call_implISt12_Bind_simpleIFSt7_Mem_fnIMSt6threadFvvEESt17reference_wrapperIS2_EEEEvv,comdat
	.p2align 4,,15
	.weak	_ZSt16__once_call_implISt12_Bind_simpleIFSt7_Mem_fnIMSt6threadFvvEESt17reference_wrapperIS2_EEEEvv
	.type	_ZSt16__once_call_implISt12_Bind_simpleIFSt7_Mem_fnIMSt6threadFvvEESt17reference_wrapperIS2_EEEEvv, @function
_ZSt16__once_call_implISt12_Bind_simpleIFSt7_Mem_fnIMSt6threadFvvEESt17reference_wrapperIS2_EEEEvv:
.LFB5977:
	.file 13 "/usr/include/c++/4.8/mutex"
	.loc 13 752 0
	.cfi_startproc
	.loc 13 754 0
	movq	_ZSt15__once_callable@gottpoff(%rip), %rax
	movq	%fs:(%rax), %rax
.LVL81:
.LBB6951:
.LBB6952:
.LBB6953:
.LBB6954:
.LBB6955:
.LBB6956:
	.loc 3 588 0
	movq	8(%rax), %rdx
.LBE6956:
.LBE6955:
.LBE6954:
.LBB6959:
.LBB6960:
	.loc 3 446 0
	movq	(%rax), %rdi
.LVL82:
	addq	16(%rax), %rdi
.LVL83:
.LBE6960:
.LBE6959:
.LBB6961:
.LBB6958:
.LBB6957:
	.loc 3 588 0
	testb	$1, %dl
	je	.L67
	movq	(%rdi), %rax
.LVL84:
	movq	-1(%rax,%rdx), %rdx
.L67:
	jmp	*%rdx
.LVL85:
.LBE6957:
.LBE6958:
.LBE6961:
.LBE6953:
.LBE6952:
.LBE6951:
	.cfi_endproc
.LFE5977:
	.size	_ZSt16__once_call_implISt12_Bind_simpleIFSt7_Mem_fnIMSt6threadFvvEESt17reference_wrapperIS2_EEEEvv, .-_ZSt16__once_call_implISt12_Bind_simpleIFSt7_Mem_fnIMSt6threadFvvEESt17reference_wrapperIS2_EEEEvv
	.section	.text._ZSt16__once_call_implISt12_Bind_simpleIFSt7_Mem_fnIMNSt13__future_base11_State_baseEFvRSt8functionIFSt10unique_ptrINS2_12_Result_baseENS6_8_DeleterEEvEERbEEPS3_St17reference_wrapperISA_ESH_IbEEEEvv,"axG",@progbits,_ZSt16__once_call_implISt12_Bind_simpleIFSt7_Mem_fnIMNSt13__future_base11_State_baseEFvRSt8functionIFSt10unique_ptrINS2_12_Result_baseENS6_8_DeleterEEvEERbEEPS3_St17reference_wrapperISA_ESH_IbEEEEvv,comdat
	.p2align 4,,15
	.weak	_ZSt16__once_call_implISt12_Bind_simpleIFSt7_Mem_fnIMNSt13__future_base11_State_baseEFvRSt8functionIFSt10unique_ptrINS2_12_Result_baseENS6_8_DeleterEEvEERbEEPS3_St17reference_wrapperISA_ESH_IbEEEEvv
	.type	_ZSt16__once_call_implISt12_Bind_simpleIFSt7_Mem_fnIMNSt13__future_base11_State_baseEFvRSt8functionIFSt10unique_ptrINS2_12_Result_baseENS6_8_DeleterEEvEERbEEPS3_St17reference_wrapperISA_ESH_IbEEEEvv, @function
_ZSt16__once_call_implISt12_Bind_simpleIFSt7_Mem_fnIMNSt13__future_base11_State_baseEFvRSt8functionIFSt10unique_ptrINS2_12_Result_baseENS6_8_DeleterEEvEERbEEPS3_St17reference_wrapperISA_ESH_IbEEEEvv:
.LFB5923:
	.loc 13 752 0
	.cfi_startproc
	.loc 13 754 0
	movq	_ZSt15__once_callable@gottpoff(%rip), %rax
	movq	%fs:(%rax), %rax
.LVL86:
.LBB6986:
.LBB6987:
.LBB6988:
.LBB6989:
.LBB6990:
.LBB6991:
	.loc 3 601 0
	movq	24(%rax), %rdx
.LBE6991:
.LBE6990:
	.loc 3 1731 0
	movq	16(%rax), %rdi
.LVL87:
	addq	32(%rax), %rdi
.LVL88:
.LBB6993:
.LBB6992:
	.loc 3 601 0
	testb	$1, %dl
	movq	%rdx, %rcx
	je	.L70
	movq	(%rdi), %rcx
	movq	-1(%rcx,%rdx), %rcx
.L70:
.LVL89:
	movq	8(%rax), %rsi
	movq	(%rax), %rdx
	jmp	*%rcx
.LVL90:
.LBE6992:
.LBE6993:
.LBE6989:
.LBE6988:
.LBE6987:
.LBE6986:
	.cfi_endproc
.LFE5923:
	.size	_ZSt16__once_call_implISt12_Bind_simpleIFSt7_Mem_fnIMNSt13__future_base11_State_baseEFvRSt8functionIFSt10unique_ptrINS2_12_Result_baseENS6_8_DeleterEEvEERbEEPS3_St17reference_wrapperISA_ESH_IbEEEEvv, .-_ZSt16__once_call_implISt12_Bind_simpleIFSt7_Mem_fnIMNSt13__future_base11_State_baseEFvRSt8functionIFSt10unique_ptrINS2_12_Result_baseENS6_8_DeleterEEvEERbEEPS3_St17reference_wrapperISA_ESH_IbEEEEvv
	.section	.text._ZNSt13__future_base11_State_base9_M_do_setERSt8functionIFSt10unique_ptrINS_12_Result_baseENS3_8_DeleterEEvEERb,"axG",@progbits,_ZNSt13__future_base11_State_base9_M_do_setERSt8functionIFSt10unique_ptrINS_12_Result_baseENS3_8_DeleterEEvEERb,comdat
	.align 2
	.p2align 4,,15
	.weak	_ZNSt13__future_base11_State_base9_M_do_setERSt8functionIFSt10unique_ptrINS_12_Result_baseENS3_8_DeleterEEvEERb
	.type	_ZNSt13__future_base11_State_base9_M_do_setERSt8functionIFSt10unique_ptrINS_12_Result_baseENS3_8_DeleterEEvEERb, @function
_ZNSt13__future_base11_State_base9_M_do_setERSt8functionIFSt10unique_ptrINS_12_Result_baseENS3_8_DeleterEEvEERb:
.LFB4793:
	.loc 1 469 0
	.cfi_startproc
	.cfi_personality 0x3,__gxx_personality_v0
	.cfi_lsda 0x3,.LLSDA4793
.LVL91:
	pushq	%r12
	.cfi_def_cfa_offset 16
	.cfi_offset 12, -16
	movq	%rsi, %rax
	pushq	%rbp
	.cfi_def_cfa_offset 24
	.cfi_offset 6, -24
	pushq	%rbx
	.cfi_def_cfa_offset 32
	.cfi_offset 3, -32
	subq	$16, %rsp
	.cfi_def_cfa_offset 48
.LBB7026:
.LBB7027:
.LBB7028:
	.loc 3 2469 0
	cmpq	$0, 16(%rsi)
	je	.L87
	movq	%rdi, %rbx
	movq	%rdx, %r12
	.loc 3 2471 0
	movq	%rsp, %rdi
.LVL92:
.LEHB2:
	call	*24(%rax)
.LEHE2:
.LVL93:
.LBE7028:
.LBE7027:
.LBB7030:
.LBB7031:
.LBB7032:
.LBB7033:
.LBB7034:
.LBB7035:
	.file 14 "/usr/include/x86_64-linux-gnu/c++/4.8/bits/gthr-default.h"
	.loc 14 747 0
	movl	$_ZL28__gthrw___pthread_key_createPjPFvPvE, %eax
.LBE7035:
.LBE7034:
	.loc 13 134 0
	leaq	16(%rbx), %rbp
.LVL94:
.LBB7037:
.LBB7036:
	.loc 14 747 0
	testq	%rax, %rax
	je	.L73
	.loc 14 748 0
	movq	%rbp, %rdi
	call	_ZL26__gthrw_pthread_mutex_lockP15pthread_mutex_t
.LVL95:
.LBE7036:
.LBE7037:
	.loc 13 137 0
	testl	%eax, %eax
	jne	.L88
.LVL96:
.LBE7033:
.LBE7032:
.LBE7031:
.LBB7040:
.LBB7041:
.LBB7042:
.LBB7043:
.LBB7044:
.LBB7045:
	.file 15 "/usr/include/c++/4.8/bits/move.h"
	.loc 15 176 0
	movq	(%rsp), %rdx
	.loc 15 175 0
	movq	8(%rbx), %rax
.LVL97:
.LBE7045:
.LBE7044:
.LBE7043:
.LBE7042:
.LBE7041:
.LBE7040:
.LBB7056:
.LBB7057:
.LBB7058:
.LBB7059:
	.loc 14 778 0
	movq	%rbp, %rdi
.LBE7059:
.LBE7058:
.LBE7057:
.LBE7056:
.LBB7063:
.LBB7054:
.LBB7052:
.LBB7050:
.LBB7048:
.LBB7046:
	.loc 15 176 0
	movq	%rdx, 8(%rbx)
.LVL98:
	.loc 15 177 0
	movq	%rax, (%rsp)
.LVL99:
.LBE7046:
.LBE7048:
.LBE7050:
.LBE7052:
.LBE7054:
.LBE7063:
.LBB7064:
.LBB7062:
.LBB7061:
.LBB7060:
	.loc 14 778 0
	call	_ZL28__gthrw_pthread_mutex_unlockP15pthread_mutex_t
.LVL100:
	movq	(%rsp), %rdi
.LVL101:
.L78:
.LBE7060:
.LBE7061:
.LBE7062:
.LBE7064:
.LBE7030:
.LBB7067:
.LBB7068:
	.loc 5 183 0
	testq	%rdi, %rdi
.LBE7068:
.LBE7067:
	.loc 1 476 0
	movb	$1, (%r12)
.LVL102:
.LBB7072:
.LBB7071:
	.loc 5 183 0
	je	.L71
.LVL103:
.LBB7069:
.LBB7070:
	.loc 1 196 0
	movq	(%rdi), %rax
	call	*(%rax)
.LVL104:
.L71:
.LBE7070:
.LBE7069:
.LBE7071:
.LBE7072:
.LBE7026:
	.loc 1 477 0
	addq	$16, %rsp
	.cfi_remember_state
	.cfi_def_cfa_offset 32
.LVL105:
	popq	%rbx
	.cfi_def_cfa_offset 24
.LVL106:
	popq	%rbp
	.cfi_def_cfa_offset 16
.LVL107:
	popq	%r12
	.cfi_def_cfa_offset 8
.LVL108:
	ret
.LVL109:
.L87:
	.cfi_restore_state
.LEHB3:
.LBB7080:
.LBB7073:
.LBB7029:
	.loc 3 2470 0
	call	_ZSt25__throw_bad_function_callv
.LEHE3:
.LVL110:
.L88:
.LBE7029:
.LBE7073:
.LBB7074:
.LBB7065:
.LBB7039:
.LBB7038:
	.loc 13 138 0
	movl	%eax, %edi
.LEHB4:
	call	_ZSt20__throw_system_errori
.LEHE4:
.LVL111:
.L79:
.LBE7038:
.LBE7039:
.LBE7065:
.LBE7074:
.LBB7075:
.LBB7076:
	.loc 5 183 0
	movq	(%rsp), %rdi
	movq	%rax, %rbx
.LVL112:
	testq	%rdi, %rdi
	je	.L77
.LVL113:
.LBB7077:
.LBB7078:
	.loc 1 196 0
	movq	(%rdi), %rax
	call	*(%rax)
.LVL114:
.L77:
	movq	%rbx, %rdi
.LEHB5:
	call	_Unwind_Resume
.LEHE5:
.LVL115:
.L73:
.LBE7078:
.LBE7077:
.LBE7076:
.LBE7075:
.LBB7079:
.LBB7066:
.LBB7055:
.LBB7053:
.LBB7051:
.LBB7049:
.LBB7047:
	.loc 15 175 0
	movq	8(%rbx), %rax
.LVL116:
	.loc 15 176 0
	movq	(%rsp), %rdx
	movq	%rax, %rdi
	movq	%rdx, 8(%rbx)
.LVL117:
	.loc 15 177 0
	movq	%rax, (%rsp)
.LVL118:
	jmp	.L78
.LBE7047:
.LBE7049:
.LBE7051:
.LBE7053:
.LBE7055:
.LBE7066:
.LBE7079:
.LBE7080:
	.cfi_endproc
.LFE4793:
	.section	.gcc_except_table
.LLSDA4793:
	.byte	0xff
	.byte	0xff
	.byte	0x1
	.uleb128 .LLSDACSE4793-.LLSDACSB4793
.LLSDACSB4793:
	.uleb128 .LEHB2-.LFB4793
	.uleb128 .LEHE2-.LEHB2
	.uleb128 0
	.uleb128 0
	.uleb128 .LEHB3-.LFB4793
	.uleb128 .LEHE3-.LEHB3
	.uleb128 0
	.uleb128 0
	.uleb128 .LEHB4-.LFB4793
	.uleb128 .LEHE4-.LEHB4
	.uleb128 .L79-.LFB4793
	.uleb128 0
	.uleb128 .LEHB5-.LFB4793
	.uleb128 .LEHE5-.LEHB5
	.uleb128 0
	.uleb128 0
.LLSDACSE4793:
	.section	.text._ZNSt13__future_base11_State_base9_M_do_setERSt8functionIFSt10unique_ptrINS_12_Result_baseENS3_8_DeleterEEvEERb,"axG",@progbits,_ZNSt13__future_base11_State_base9_M_do_setERSt8functionIFSt10unique_ptrINS_12_Result_baseENS3_8_DeleterEEvEERb,comdat
	.size	_ZNSt13__future_base11_State_base9_M_do_setERSt8functionIFSt10unique_ptrINS_12_Result_baseENS3_8_DeleterEEvEERb, .-_ZNSt13__future_base11_State_base9_M_do_setERSt8functionIFSt10unique_ptrINS_12_Result_baseENS3_8_DeleterEEvEERb
	.section	.text._ZNSt13__future_base19_Async_state_commonD0Ev,"axG",@progbits,_ZNSt13__future_base19_Async_state_commonD0Ev,comdat
	.align 2
	.p2align 4,,15
	.weak	_ZNSt13__future_base19_Async_state_commonD0Ev
	.type	_ZNSt13__future_base19_Async_state_commonD0Ev, @function
_ZNSt13__future_base19_Async_state_commonD0Ev:
.LFB6965:
	.loc 1 1475 0
	.cfi_startproc
.LVL119:
	pushq	%rbx
	.cfi_def_cfa_offset 16
	.cfi_offset 3, -16
.LBB7087:
.LBB7088:
.LBB7089:
.LBB7090:
.LBB7091:
	.loc 6 142 0
	cmpq	$0, 112(%rdi)
.LBE7091:
.LBE7090:
.LBE7089:
.LBE7088:
.LBE7087:
	.loc 1 1475 0
	movq	%rdi, %rbx
.LBB7100:
.LBB7098:
	movq	$_ZTVNSt13__future_base19_Async_state_commonE+16, (%rdi)
.LVL120:
.LBB7096:
.LBB7094:
.LBB7092:
	.loc 6 142 0
	jne	.L92
.LBE7092:
.LBE7094:
.LBE7096:
	.loc 1 1475 0
	call	_ZNSt13__future_base11_State_baseD2Ev
.LVL121:
.LBE7098:
.LBE7100:
	movq	%rbx, %rdi
	popq	%rbx
	.cfi_remember_state
	.cfi_def_cfa_offset 8
.LVL122:
	jmp	_ZdlPv
.LVL123:
.L92:
	.cfi_restore_state
.LBB7101:
.LBB7099:
.LBB7097:
.LBB7095:
.LBB7093:
	.loc 6 143 0
	call	_ZSt9terminatev
.LVL124:
.LBE7093:
.LBE7095:
.LBE7097:
.LBE7099:
.LBE7101:
	.cfi_endproc
.LFE6965:
	.size	_ZNSt13__future_base19_Async_state_commonD0Ev, .-_ZNSt13__future_base19_Async_state_commonD0Ev
	.section	.text._ZNSt14_Function_base13_Base_managerINSt13__future_base12_Task_setterISt10unique_ptrINS1_7_ResultIvEENS1_12_Result_base8_DeleterEEvEEE10_M_managerERSt9_Any_dataRKSB_St18_Manager_operation,"axG",@progbits,_ZNSt14_Function_base13_Base_managerINSt13__future_base12_Task_setterISt10unique_ptrINS1_7_ResultIvEENS1_12_Result_base8_DeleterEEvEEE10_M_managerERSt9_Any_dataRKSB_St18_Manager_operation,comdat
	.p2align 4,,15
	.weak	_ZNSt14_Function_base13_Base_managerINSt13__future_base12_Task_setterISt10unique_ptrINS1_7_ResultIvEENS1_12_Result_base8_DeleterEEvEEE10_M_managerERSt9_Any_dataRKSB_St18_Manager_operation
	.type	_ZNSt14_Function_base13_Base_managerINSt13__future_base12_Task_setterISt10unique_ptrINS1_7_ResultIvEENS1_12_Result_base8_DeleterEEvEEE10_M_managerERSt9_Any_dataRKSB_St18_Manager_operation, @function
_ZNSt14_Function_base13_Base_managerINSt13__future_base12_Task_setterISt10unique_ptrINS1_7_ResultIvEENS1_12_Result_base8_DeleterEEvEEE10_M_managerERSt9_Any_dataRKSB_St18_Manager_operation:
.LFB7029:
	.loc 3 1931 0
	.cfi_startproc
	.cfi_personality 0x3,__gxx_personality_v0
	.cfi_lsda 0x3,.LLSDA7029
.LVL125:
	pushq	%r13
	.cfi_def_cfa_offset 16
	.cfi_offset 13, -16
	pushq	%r12
	.cfi_def_cfa_offset 24
	.cfi_offset 12, -24
	pushq	%rbp
	.cfi_def_cfa_offset 32
	.cfi_offset 6, -32
	pushq	%rbx
	.cfi_def_cfa_offset 40
	.cfi_offset 3, -40
	movq	%rdi, %rbx
	subq	$8, %rsp
	.cfi_def_cfa_offset 48
	.loc 3 1934 0
	cmpl	$1, %edx
	je	.L95
	jle	.L118
	cmpl	$2, %edx
	je	.L98
	cmpl	$3, %edx
	.p2align 4,,5
	jne	.L94
.LVL126:
.LBB7123:
.LBB7124:
	.loc 3 1926 0
	movq	(%rdi), %rbx
	testq	%rbx, %rbx
	je	.L94
.LVL127:
.LBB7125:
.LBB7126:
.LBB7127:
.LBB7128:
.LBB7129:
	.loc 3 2029 0
	movq	24(%rbx), %rax
	testq	%rax, %rax
	je	.L103
	.loc 3 2030 0
	leaq	8(%rbx), %rdi
.LVL128:
	movl	$3, %edx
.LVL129:
	movq	%rdi, %rsi
.LVL130:
	call	*%rax
.LVL131:
.L103:
.LBE7129:
.LBE7128:
.LBE7127:
.LBE7126:
.LBE7125:
	.loc 3 1926 0
	movq	%rbx, %rdi
	call	_ZdlPv
.LVL132:
.LBE7124:
.LBE7123:
	.loc 3 1954 0
	addq	$8, %rsp
	.cfi_remember_state
	.cfi_def_cfa_offset 40
	xorl	%eax, %eax
	popq	%rbx
	.cfi_def_cfa_offset 32
.LVL133:
	popq	%rbp
	.cfi_def_cfa_offset 24
	popq	%r12
	.cfi_def_cfa_offset 16
	popq	%r13
	.cfi_def_cfa_offset 8
	ret
.LVL134:
	.p2align 4,,10
	.p2align 3
.L98:
	.cfi_restore_state
.LBB7130:
.LBB7131:
	.loc 3 1910 0
	movq	(%rsi), %r12
	movl	$40, %edi
.LEHB6:
	call	_Znwm
.LEHE6:
.LVL135:
	movq	%rax, %rbp
.LVL136:
.LBB7132:
.LBB7133:
	.loc 1 1229 0
	movq	(%r12), %rax
.LVL137:
.LBB7134:
.LBB7135:
.LBB7136:
.LBB7137:
	.loc 3 2025 0
	movq	$0, 24(%rbp)
.LBE7137:
.LBE7136:
.LBE7135:
.LBE7134:
	.loc 1 1229 0
	movq	%rax, 0(%rbp)
.LVL138:
.LBE7133:
.LBE7132:
.LBE7131:
.LBE7130:
	.loc 3 2387 0
	movq	24(%r12), %rax
.LVL139:
.LBB7151:
.LBB7149:
.LBB7147:
.LBB7145:
.LBB7143:
.LBB7141:
	.loc 3 2440 0
	testq	%rax, %rax
	je	.L100
	.loc 3 2442 0
	leaq	8(%rbp), %r13
.LVL140:
	leaq	8(%r12), %rsi
.LVL141:
	movl	$2, %edx
	movq	%r13, %rdi
.LEHB7:
	call	*%rax
.LEHE7:
.LVL142:
	.loc 3 2443 0
	movq	32(%r12), %rax
	movq	%rax, 32(%rbp)
	.loc 3 2444 0
	movq	24(%r12), %rax
	movq	%rax, 24(%rbp)
.LVL143:
.L100:
.LBE7141:
.LBE7143:
.LBE7145:
.LBE7147:
	.loc 3 1910 0
	movq	%rbp, (%rbx)
.LVL144:
.L94:
.LBE7149:
.LBE7151:
	.loc 3 1954 0
	addq	$8, %rsp
	.cfi_remember_state
	.cfi_def_cfa_offset 40
	xorl	%eax, %eax
	popq	%rbx
	.cfi_def_cfa_offset 32
	popq	%rbp
	.cfi_def_cfa_offset 24
	popq	%r12
	.cfi_def_cfa_offset 16
	popq	%r13
	.cfi_def_cfa_offset 8
	ret
.LVL145:
	.p2align 4,,10
	.p2align 3
.L118:
	.cfi_restore_state
	.loc 3 1934 0
	testl	%edx, %edx
	jne	.L94
.LVL146:
	.loc 3 1938 0
	movq	$_ZTINSt13__future_base12_Task_setterISt10unique_ptrINS_7_ResultIvEENS_12_Result_base8_DeleterEEvEE, (%rdi)
	.loc 3 1954 0
	addq	$8, %rsp
	.cfi_remember_state
	.cfi_def_cfa_offset 40
	xorl	%eax, %eax
	popq	%rbx
	.cfi_def_cfa_offset 32
.LVL147:
	popq	%rbp
	.cfi_def_cfa_offset 24
	popq	%r12
	.cfi_def_cfa_offset 16
	popq	%r13
	.cfi_def_cfa_offset 8
	ret
.LVL148:
	.p2align 4,,10
	.p2align 3
.L95:
	.cfi_restore_state
.LBB7152:
.LBB7153:
	.loc 3 1893 0
	movq	(%rsi), %rax
.LVL149:
.LBE7153:
.LBE7152:
	.loc 3 1942 0
	movq	%rax, (%rdi)
	.loc 3 1954 0
	addq	$8, %rsp
	.cfi_remember_state
	.cfi_def_cfa_offset 40
	xorl	%eax, %eax
.LVL150:
	popq	%rbx
	.cfi_def_cfa_offset 32
.LVL151:
	popq	%rbp
	.cfi_def_cfa_offset 24
	popq	%r12
	.cfi_def_cfa_offset 16
	popq	%r13
	.cfi_def_cfa_offset 8
	ret
.LVL152:
.L104:
	.cfi_restore_state
.LBB7154:
.LBB7150:
.LBB7148:
.LBB7146:
.LBB7144:
.LBB7142:
.LBB7138:
.LBB7139:
.LBB7140:
	.loc 3 2029 0
	movq	24(%rbp), %rcx
	movq	%rax, %rbx
.LVL153:
	testq	%rcx, %rcx
	je	.L102
	.loc 3 2030 0
	movl	$3, %edx
	movq	%r13, %rsi
	movq	%r13, %rdi
	call	*%rcx
.LVL154:
.L102:
.LBE7140:
.LBE7139:
.LBE7138:
.LBE7142:
.LBE7144:
.LBE7146:
.LBE7148:
	.loc 3 1910 0
	movq	%rbp, %rdi
	call	_ZdlPv
.LVL155:
	movq	%rbx, %rdi
.LEHB8:
	call	_Unwind_Resume
.LEHE8:
.LVL156:
.LBE7150:
.LBE7154:
	.cfi_endproc
.LFE7029:
	.section	.gcc_except_table
.LLSDA7029:
	.byte	0xff
	.byte	0xff
	.byte	0x1
	.uleb128 .LLSDACSE7029-.LLSDACSB7029
.LLSDACSB7029:
	.uleb128 .LEHB6-.LFB7029
	.uleb128 .LEHE6-.LEHB6
	.uleb128 0
	.uleb128 0
	.uleb128 .LEHB7-.LFB7029
	.uleb128 .LEHE7-.LEHB7
	.uleb128 .L104-.LFB7029
	.uleb128 0
	.uleb128 .LEHB8-.LFB7029
	.uleb128 .LEHE8-.LEHB8
	.uleb128 0
	.uleb128 0
.LLSDACSE7029:
	.section	.text._ZNSt14_Function_base13_Base_managerINSt13__future_base12_Task_setterISt10unique_ptrINS1_7_ResultIvEENS1_12_Result_base8_DeleterEEvEEE10_M_managerERSt9_Any_dataRKSB_St18_Manager_operation,"axG",@progbits,_ZNSt14_Function_base13_Base_managerINSt13__future_base12_Task_setterISt10unique_ptrINS1_7_ResultIvEENS1_12_Result_base8_DeleterEEvEEE10_M_managerERSt9_Any_dataRKSB_St18_Manager_operation,comdat
	.size	_ZNSt14_Function_base13_Base_managerINSt13__future_base12_Task_setterISt10unique_ptrINS1_7_ResultIvEENS1_12_Result_base8_DeleterEEvEEE10_M_managerERSt9_Any_dataRKSB_St18_Manager_operation, .-_ZNSt14_Function_base13_Base_managerINSt13__future_base12_Task_setterISt10unique_ptrINS1_7_ResultIvEENS1_12_Result_base8_DeleterEEvEEE10_M_managerERSt9_Any_dataRKSB_St18_Manager_operation
	.text
	.align 2
	.p2align 4,,15
	.type	_ZNSt23_Sp_counted_ptr_inplaceINSt13__future_base15_Deferred_stateISt12_Bind_simpleIFZN5Paths18runMakePathsBufferERSt6vectorI4PathSaIS5_EEN14TimeSeparation8PositionEEUlvE_vEEvEESaISE_ELN9__gnu_cxx12_Lock_policyE2EE14_M_get_deleterERKSt9type_info, @function
_ZNSt23_Sp_counted_ptr_inplaceINSt13__future_base15_Deferred_stateISt12_Bind_simpleIFZN5Paths18runMakePathsBufferERSt6vectorI4PathSaIS5_EEN14TimeSeparation8PositionEEUlvE_vEEvEESaISE_ELN9__gnu_cxx12_Lock_policyE2EE14_M_get_deleterERKSt9type_info:
.LFB7243:
	.loc 2 422 0
	.cfi_startproc
.LVL157:
	.loc 2 422 0
	movq	8(%rsi), %rsi
.LVL158:
	movq	%rdi, %r8
.LBB7157:
.LBB7158:
	.loc 12 123 0
	cmpq	$_ZTSSt19_Sp_make_shared_tag, %rsi
	je	.L120
.LBE7158:
.LBE7157:
	.loc 2 427 0
	xorl	%eax, %eax
.LBB7160:
.LBB7159:
	.loc 12 123 0
	cmpb	$42, (%rsi)
	je	.L127
	.loc 12 124 0
	movl	$_ZTSSt19_Sp_make_shared_tag, %edi
.LVL159:
	movl	$24, %ecx
	.loc 12 123 0
	repz cmpsb
	je	.L120
.L127:
.LBE7159:
.LBE7160:
	.loc 2 431 0
	rep ret
	.p2align 4,,10
	.p2align 3
.L120:
	.loc 2 427 0
	leaq	24(%r8), %rax
	.loc 2 431 0
	ret
	.cfi_endproc
.LFE7243:
	.size	_ZNSt23_Sp_counted_ptr_inplaceINSt13__future_base15_Deferred_stateISt12_Bind_simpleIFZN5Paths18runMakePathsBufferERSt6vectorI4PathSaIS5_EEN14TimeSeparation8PositionEEUlvE_vEEvEESaISE_ELN9__gnu_cxx12_Lock_policyE2EE14_M_get_deleterERKSt9type_info, .-_ZNSt23_Sp_counted_ptr_inplaceINSt13__future_base15_Deferred_stateISt12_Bind_simpleIFZN5Paths18runMakePathsBufferERSt6vectorI4PathSaIS5_EEN14TimeSeparation8PositionEEUlvE_vEEvEESaISE_ELN9__gnu_cxx12_Lock_policyE2EE14_M_get_deleterERKSt9type_info
	.align 2
	.p2align 4,,15
	.type	_ZNSt23_Sp_counted_ptr_inplaceINSt6thread5_ImplISt12_Bind_simpleIFZNSt13__future_base17_Async_state_implIS2_IFZN5Paths18runMakePathsBufferERSt6vectorI4PathSaIS7_EEN14TimeSeparation8PositionEEUlvE_vEEvEC1EOSF_EUlvE_vEEEESaISL_ELN9__gnu_cxx12_Lock_policyE2EE14_M_get_deleterERKSt9type_info, @function
_ZNSt23_Sp_counted_ptr_inplaceINSt6thread5_ImplISt12_Bind_simpleIFZNSt13__future_base17_Async_state_implIS2_IFZN5Paths18runMakePathsBufferERSt6vectorI4PathSaIS7_EEN14TimeSeparation8PositionEEUlvE_vEEvEC1EOSF_EUlvE_vEEEESaISL_ELN9__gnu_cxx12_Lock_policyE2EE14_M_get_deleterERKSt9type_info:
.LFB7235:
	.loc 2 422 0
	.cfi_startproc
.LVL160:
	.loc 2 422 0
	movq	8(%rsi), %rsi
.LVL161:
	movq	%rdi, %r8
.LBB7163:
.LBB7164:
	.loc 12 123 0
	cmpq	$_ZTSSt19_Sp_make_shared_tag, %rsi
	je	.L131
.LBE7164:
.LBE7163:
	.loc 2 427 0
	xorl	%eax, %eax
.LBB7166:
.LBB7165:
	.loc 12 123 0
	cmpb	$42, (%rsi)
	je	.L138
	.loc 12 124 0
	movl	$_ZTSSt19_Sp_make_shared_tag, %edi
.LVL162:
	movl	$24, %ecx
	.loc 12 123 0
	repz cmpsb
	je	.L131
.L138:
.LBE7165:
.LBE7166:
	.loc 2 431 0
	rep ret
	.p2align 4,,10
	.p2align 3
.L131:
	.loc 2 427 0
	leaq	24(%r8), %rax
	.loc 2 431 0
	ret
	.cfi_endproc
.LFE7235:
	.size	_ZNSt23_Sp_counted_ptr_inplaceINSt6thread5_ImplISt12_Bind_simpleIFZNSt13__future_base17_Async_state_implIS2_IFZN5Paths18runMakePathsBufferERSt6vectorI4PathSaIS7_EEN14TimeSeparation8PositionEEUlvE_vEEvEC1EOSF_EUlvE_vEEEESaISL_ELN9__gnu_cxx12_Lock_policyE2EE14_M_get_deleterERKSt9type_info, .-_ZNSt23_Sp_counted_ptr_inplaceINSt6thread5_ImplISt12_Bind_simpleIFZNSt13__future_base17_Async_state_implIS2_IFZN5Paths18runMakePathsBufferERSt6vectorI4PathSaIS7_EEN14TimeSeparation8PositionEEUlvE_vEEvEC1EOSF_EUlvE_vEEEESaISL_ELN9__gnu_cxx12_Lock_policyE2EE14_M_get_deleterERKSt9type_info
	.align 2
	.p2align 4,,15
	.type	_ZNSt23_Sp_counted_ptr_inplaceINSt13__future_base15_Deferred_stateISt12_Bind_simpleIFZN5Paths18runMakePathsBufferERSt6vectorI4PathSaIS5_EEN14TimeSeparation8PositionEEUlvE_vEEvEESaISE_ELN9__gnu_cxx12_Lock_policyE2EE10_M_disposeEv, @function
_ZNSt23_Sp_counted_ptr_inplaceINSt13__future_base15_Deferred_stateISt12_Bind_simpleIFZN5Paths18runMakePathsBufferERSt6vectorI4PathSaIS5_EEN14TimeSeparation8PositionEEUlvE_vEEvEESaISE_ELN9__gnu_cxx12_Lock_policyE2EE10_M_disposeEv:
.LFB7241:
	.loc 2 406 0
	.cfi_startproc
	.cfi_personality 0x3,__gxx_personality_v0
	.cfi_lsda 0x3,.LLSDA7241
.LVL163:
	pushq	%rbx
	.cfi_def_cfa_offset 16
	.cfi_offset 3, -16
	.loc 2 407 0
	movq	16(%rdi), %rbx
.LVL164:
.LBB7178:
.LBB7179:
.LBB7180:
.LBB7181:
.LBB7182:
.LBB7183:
.LBB7184:
	.loc 5 183 0
	movq	112(%rbx), %rdi
.LVL165:
.LBE7184:
.LBE7183:
	.loc 1 1447 0
	movq	$_ZTVNSt13__future_base15_Deferred_stateISt12_Bind_simpleIFZN5Paths18runMakePathsBufferERSt6vectorI4PathSaIS4_EEN14TimeSeparation8PositionEEUlvE_vEEvEE+16, (%rbx)
.LVL166:
.LBB7188:
.LBB7187:
	.loc 5 183 0
	testq	%rdi, %rdi
	je	.L142
.LVL167:
.LBB7185:
.LBB7186:
	.loc 1 196 0
	movq	(%rdi), %rax
	call	*(%rax)
.LVL168:
.L142:
.LBE7186:
.LBE7185:
	.loc 5 185 0
	movq	$0, 112(%rbx)
.LBE7187:
.LBE7188:
	.loc 1 1447 0
	movq	%rbx, %rdi
.LBE7182:
.LBE7181:
.LBE7180:
.LBE7179:
.LBE7178:
	.loc 2 407 0
	popq	%rbx
	.cfi_def_cfa_offset 8
.LVL169:
.LBB7193:
.LBB7192:
.LBB7191:
.LBB7190:
.LBB7189:
	.loc 1 1447 0
	jmp	_ZNSt13__future_base11_State_baseD2Ev
.LVL170:
.LBE7189:
.LBE7190:
.LBE7191:
.LBE7192:
.LBE7193:
	.cfi_endproc
.LFE7241:
	.section	.gcc_except_table
.LLSDA7241:
	.byte	0xff
	.byte	0xff
	.byte	0x1
	.uleb128 .LLSDACSE7241-.LLSDACSB7241
.LLSDACSB7241:
.LLSDACSE7241:
	.text
	.size	_ZNSt23_Sp_counted_ptr_inplaceINSt13__future_base15_Deferred_stateISt12_Bind_simpleIFZN5Paths18runMakePathsBufferERSt6vectorI4PathSaIS5_EEN14TimeSeparation8PositionEEUlvE_vEEvEESaISE_ELN9__gnu_cxx12_Lock_policyE2EE10_M_disposeEv, .-_ZNSt23_Sp_counted_ptr_inplaceINSt13__future_base15_Deferred_stateISt12_Bind_simpleIFZN5Paths18runMakePathsBufferERSt6vectorI4PathSaIS5_EEN14TimeSeparation8PositionEEUlvE_vEEvEESaISE_ELN9__gnu_cxx12_Lock_policyE2EE10_M_disposeEv
	.align 2
	.p2align 4,,15
	.type	_ZNSt13__future_base15_Deferred_stateISt12_Bind_simpleIFZN5Paths18runMakePathsBufferERSt6vectorI4PathSaIS4_EEN14TimeSeparation8PositionEEUlvE_vEEvED0Ev, @function
_ZNSt13__future_base15_Deferred_stateISt12_Bind_simpleIFZN5Paths18runMakePathsBufferERSt6vectorI4PathSaIS4_EEN14TimeSeparation8PositionEEUlvE_vEEvED0Ev:
.LFB7207:
	.loc 1 1447 0
	.cfi_startproc
	.cfi_personality 0x3,__gxx_personality_v0
	.cfi_lsda 0x3,.LLSDA7207
.LVL171:
	pushq	%rbx
	.cfi_def_cfa_offset 16
	.cfi_offset 3, -16
	.loc 1 1447 0
	movq	%rdi, %rbx
.LBB7201:
.LBB7202:
	movq	$_ZTVNSt13__future_base15_Deferred_stateISt12_Bind_simpleIFZN5Paths18runMakePathsBufferERSt6vectorI4PathSaIS4_EEN14TimeSeparation8PositionEEUlvE_vEEvEE+16, (%rdi)
.LVL172:
.LBB7203:
.LBB7204:
	.loc 5 183 0
	movq	112(%rdi), %rdi
.LVL173:
	testq	%rdi, %rdi
	je	.L148
.LVL174:
.LBB7205:
.LBB7206:
	.loc 1 196 0
	movq	(%rdi), %rax
	call	*(%rax)
.LVL175:
.L148:
.LBE7206:
.LBE7205:
.LBE7204:
.LBE7203:
	.loc 1 1447 0
	movq	%rbx, %rdi
.LBB7208:
.LBB7207:
	.loc 5 185 0
	movq	$0, 112(%rbx)
.LBE7207:
.LBE7208:
	.loc 1 1447 0
	call	_ZNSt13__future_base11_State_baseD2Ev
.LVL176:
.LBE7202:
.LBE7201:
	movq	%rbx, %rdi
	popq	%rbx
	.cfi_def_cfa_offset 8
.LVL177:
	jmp	_ZdlPv
.LVL178:
	.cfi_endproc
.LFE7207:
	.section	.gcc_except_table
.LLSDA7207:
	.byte	0xff
	.byte	0xff
	.byte	0x1
	.uleb128 .LLSDACSE7207-.LLSDACSB7207
.LLSDACSB7207:
.LLSDACSE7207:
	.text
	.size	_ZNSt13__future_base15_Deferred_stateISt12_Bind_simpleIFZN5Paths18runMakePathsBufferERSt6vectorI4PathSaIS4_EEN14TimeSeparation8PositionEEUlvE_vEEvED0Ev, .-_ZNSt13__future_base15_Deferred_stateISt12_Bind_simpleIFZN5Paths18runMakePathsBufferERSt6vectorI4PathSaIS4_EEN14TimeSeparation8PositionEEUlvE_vEEvED0Ev
	.section	.text._ZNSt13__future_base19_Async_state_common15_M_run_deferredEv,"axG",@progbits,_ZNSt13__future_base19_Async_state_common15_M_run_deferredEv,comdat
	.align 2
	.p2align 4,,15
	.weak	_ZNSt13__future_base19_Async_state_common15_M_run_deferredEv
	.type	_ZNSt13__future_base19_Async_state_common15_M_run_deferredEv, @function
_ZNSt13__future_base19_Async_state_common15_M_run_deferredEv:
.LFB4983:
	.loc 1 1480 0
	.cfi_startproc
.LVL179:
.LBB7231:
.LBB7232:
	.loc 1 1482 0
	leaq	112(%rdi), %rax
.LVL180:
.LBE7232:
.LBE7231:
	.loc 1 1480 0
	subq	$40, %rsp
	.cfi_def_cfa_offset 48
.LVL181:
.LBB7252:
.LBB7250:
.LBB7233:
.LBB7234:
	.loc 13 786 0
	addq	$120, %rdi
.LVL182:
.LBB7235:
.LBB7236:
.LBB7237:
.LBB7238:
.LBB7239:
.LBB7240:
.LBB7241:
	.loc 7 142 0
	movq	$_ZNSt6thread4joinEv, 8(%rsp)
	movq	$0, 16(%rsp)
.LBE7241:
.LBE7240:
.LBE7239:
.LBE7238:
.LBE7237:
.LBE7236:
.LBE7235:
.LBE7234:
.LBE7233:
	.loc 1 1482 0
	movq	%rax, (%rsp)
.LVL183:
.LBB7248:
.LBB7246:
	.loc 13 776 0
	movq	_ZSt15__once_callable@gottpoff(%rip), %rax
.LVL184:
	movq	%rsp, %fs:(%rax)
	.loc 13 777 0
	movq	_ZSt11__once_call@gottpoff(%rip), %rax
	movq	$_ZSt16__once_call_implISt12_Bind_simpleIFSt7_Mem_fnIMSt6threadFvvEESt17reference_wrapperIS2_EEEEvv, %fs:(%rax)
.LBB7242:
.LBB7243:
	.loc 14 698 0
	movl	$_ZL28__gthrw___pthread_key_createPjPFvPvE, %eax
	testq	%rax, %rax
	je	.L156
	.loc 14 699 0
	movl	$__once_proxy, %esi
	call	_ZL20__gthrw_pthread_oncePiPFvvE
.LVL185:
.LBE7243:
.LBE7242:
	.loc 13 793 0
	testl	%eax, %eax
	jne	.L154
.LBE7246:
.LBE7248:
.LBE7250:
.LBE7252:
	.loc 1 1480 0
	addq	$40, %rsp
	.cfi_remember_state
	.cfi_def_cfa_offset 8
.LVL186:
	ret
.LVL187:
.L156:
	.cfi_restore_state
.LBB7253:
.LBB7251:
.LBB7249:
.LBB7247:
.LBB7245:
.LBB7244:
	.loc 14 701 0
	orl	$-1, %eax
.LVL188:
.L154:
.LBE7244:
.LBE7245:
	.loc 13 794 0
	movl	%eax, %edi
	call	_ZSt20__throw_system_errori
.LVL189:
.LBE7247:
.LBE7249:
.LBE7251:
.LBE7253:
	.cfi_endproc
.LFE4983:
	.size	_ZNSt13__future_base19_Async_state_common15_M_run_deferredEv, .-_ZNSt13__future_base19_Async_state_common15_M_run_deferredEv
	.text
	.align 2
	.p2align 4,,15
	.type	_ZNSt13__future_base17_Async_state_implISt12_Bind_simpleIFZN5Paths18runMakePathsBufferERSt6vectorI4PathSaIS4_EEN14TimeSeparation8PositionEEUlvE_vEEvED2Ev, @function
_ZNSt13__future_base17_Async_state_implISt12_Bind_simpleIFZN5Paths18runMakePathsBufferERSt6vectorI4PathSaIS4_EEN14TimeSeparation8PositionEEUlvE_vEEvED2Ev:
.LFB7260:
	.loc 1 1502 0
	.cfi_startproc
	.cfi_personality 0x3,__gxx_personality_v0
	.cfi_lsda 0x3,.LLSDA7260
.LVL190:
	pushq	%rbx
	.cfi_def_cfa_offset 16
	.cfi_offset 3, -16
.LBB7297:
.LBB7298:
.LBB7299:
	.loc 1 1482 0
	leaq	112(%rdi), %rax
.LBE7299:
.LBE7298:
.LBE7297:
	.loc 1 1502 0
	movq	%rdi, %rbx
.LBB7344:
.LBB7320:
.LBB7317:
.LBB7300:
.LBB7301:
	.loc 13 786 0
	leaq	120(%rdi), %rdi
.LVL191:
.LBE7301:
.LBE7300:
.LBE7317:
.LBE7320:
.LBE7344:
	.loc 1 1502 0
	subq	$32, %rsp
	.cfi_def_cfa_offset 48
.LBB7345:
	.loc 1 1502 0
	movq	$_ZTVNSt13__future_base17_Async_state_implISt12_Bind_simpleIFZN5Paths18runMakePathsBufferERSt6vectorI4PathSaIS4_EEN14TimeSeparation8PositionEEUlvE_vEEvEE+16, -120(%rdi)
.LVL192:
.LBB7321:
.LBB7318:
	.loc 1 1482 0
	movq	%rax, (%rsp)
.LVL193:
.LBB7315:
.LBB7313:
	.loc 13 776 0
	movq	_ZSt15__once_callable@gottpoff(%rip), %rax
.LBB7302:
.LBB7303:
.LBB7304:
.LBB7305:
.LBB7306:
.LBB7307:
.LBB7308:
	.loc 7 142 0
	movq	$_ZNSt6thread4joinEv, 8(%rsp)
	movq	$0, 16(%rsp)
.LBE7308:
.LBE7307:
.LBE7306:
.LBE7305:
.LBE7304:
.LBE7303:
.LBE7302:
	.loc 13 776 0
	movq	%rsp, %fs:(%rax)
	.loc 13 777 0
	movq	_ZSt11__once_call@gottpoff(%rip), %rax
	movq	$_ZSt16__once_call_implISt12_Bind_simpleIFSt7_Mem_fnIMSt6threadFvvEESt17reference_wrapperIS2_EEEEvv, %fs:(%rax)
.LBB7309:
.LBB7310:
	.loc 14 698 0
	movl	$_ZL28__gthrw___pthread_key_createPjPFvPvE, %eax
	testq	%rax, %rax
	je	.L163
	.loc 14 699 0
	movl	$__once_proxy, %esi
	call	_ZL20__gthrw_pthread_oncePiPFvvE
.LVL194:
.LBE7310:
.LBE7309:
	.loc 13 793 0
	testl	%eax, %eax
	jne	.L159
.LVL195:
.LBE7313:
.LBE7315:
.LBE7318:
.LBE7321:
.LBB7322:
.LBB7323:
	.loc 5 183 0
	movq	128(%rbx), %rdi
	testq	%rdi, %rdi
	je	.L161
.LVL196:
.LBB7324:
.LBB7325:
	.loc 1 196 0
	movq	(%rdi), %rax
.LVL197:
	call	*(%rax)
.LVL198:
.L161:
.LBE7325:
.LBE7324:
.LBE7323:
.LBE7322:
.LBB7327:
.LBB7328:
.LBB7329:
.LBB7330:
.LBB7331:
	.loc 6 142 0
	cmpq	$0, 112(%rbx)
.LBE7331:
.LBE7330:
.LBE7329:
.LBE7328:
.LBE7327:
.LBB7340:
.LBB7326:
	.loc 5 185 0
	movq	$0, 128(%rbx)
.LVL199:
.LBE7326:
.LBE7340:
.LBB7341:
.LBB7338:
	.loc 1 1475 0
	movq	$_ZTVNSt13__future_base19_Async_state_commonE+16, (%rbx)
.LVL200:
.LBB7336:
.LBB7334:
.LBB7332:
	.loc 6 142 0
	jne	.L168
.LBE7332:
.LBE7334:
.LBE7336:
	.loc 1 1475 0
	movq	%rbx, %rdi
	call	_ZNSt13__future_base11_State_baseD2Ev
.LVL201:
.LBE7338:
.LBE7341:
.LBE7345:
	.loc 1 1502 0
	addq	$32, %rsp
	.cfi_remember_state
	.cfi_def_cfa_offset 16
.LVL202:
	popq	%rbx
	.cfi_def_cfa_offset 8
.LVL203:
	ret
.LVL204:
.L163:
	.cfi_restore_state
.LBB7346:
.LBB7342:
.LBB7319:
.LBB7316:
.LBB7314:
.LBB7312:
.LBB7311:
	.loc 14 701 0
	orl	$-1, %eax
.LVL205:
.L159:
.LBE7311:
.LBE7312:
	.loc 13 794 0
	movl	%eax, %edi
	call	_ZSt20__throw_system_errori
.LVL206:
.L168:
.LBE7314:
.LBE7316:
.LBE7319:
.LBE7342:
.LBB7343:
.LBB7339:
.LBB7337:
.LBB7335:
.LBB7333:
	.loc 6 143 0
	call	_ZSt9terminatev
.LVL207:
.LBE7333:
.LBE7335:
.LBE7337:
.LBE7339:
.LBE7343:
.LBE7346:
	.cfi_endproc
.LFE7260:
	.section	.gcc_except_table
.LLSDA7260:
	.byte	0xff
	.byte	0xff
	.byte	0x1
	.uleb128 .LLSDACSE7260-.LLSDACSB7260
.LLSDACSB7260:
.LLSDACSE7260:
	.text
	.size	_ZNSt13__future_base17_Async_state_implISt12_Bind_simpleIFZN5Paths18runMakePathsBufferERSt6vectorI4PathSaIS4_EEN14TimeSeparation8PositionEEUlvE_vEEvED2Ev, .-_ZNSt13__future_base17_Async_state_implISt12_Bind_simpleIFZN5Paths18runMakePathsBufferERSt6vectorI4PathSaIS4_EEN14TimeSeparation8PositionEEUlvE_vEEvED2Ev
	.set	_ZNSt13__future_base17_Async_state_implISt12_Bind_simpleIFZN5Paths18runMakePathsBufferERSt6vectorI4PathSaIS4_EEN14TimeSeparation8PositionEEUlvE_vEEvED1Ev,_ZNSt13__future_base17_Async_state_implISt12_Bind_simpleIFZN5Paths18runMakePathsBufferERSt6vectorI4PathSaIS4_EEN14TimeSeparation8PositionEEUlvE_vEEvED2Ev
	.align 2
	.p2align 4,,15
	.type	_ZNSt23_Sp_counted_ptr_inplaceINSt13__future_base17_Async_state_implISt12_Bind_simpleIFZN5Paths18runMakePathsBufferERSt6vectorI4PathSaIS5_EEN14TimeSeparation8PositionEEUlvE_vEEvEESaISE_ELN9__gnu_cxx12_Lock_policyE2EE10_M_disposeEv, @function
_ZNSt23_Sp_counted_ptr_inplaceINSt13__future_base17_Async_state_implISt12_Bind_simpleIFZN5Paths18runMakePathsBufferERSt6vectorI4PathSaIS5_EEN14TimeSeparation8PositionEEUlvE_vEEvEESaISE_ELN9__gnu_cxx12_Lock_policyE2EE10_M_disposeEv:
.LFB7248:
	.loc 2 406 0
	.cfi_startproc
	.cfi_personality 0x3,__gxx_personality_v0
	.cfi_lsda 0x3,.LLSDA7248
.LVL208:
	pushq	%rbx
	.cfi_def_cfa_offset 16
	.cfi_offset 3, -16
	subq	$32, %rsp
	.cfi_def_cfa_offset 48
	.loc 2 407 0
	movq	16(%rdi), %rbx
.LVL209:
.LBB7386:
.LBB7387:
.LBB7388:
.LBB7389:
.LBB7390:
.LBB7391:
.LBB7392:
	.loc 1 1482 0
	leaq	112(%rbx), %rax
.LBE7392:
.LBE7391:
	.loc 1 1502 0
	movq	$_ZTVNSt13__future_base17_Async_state_implISt12_Bind_simpleIFZN5Paths18runMakePathsBufferERSt6vectorI4PathSaIS4_EEN14TimeSeparation8PositionEEUlvE_vEEvEE+16, (%rbx)
.LVL210:
.LBB7412:
.LBB7410:
.LBB7393:
.LBB7394:
	.loc 13 786 0
	leaq	120(%rbx), %rdi
.LVL211:
.LBB7395:
.LBB7396:
.LBB7397:
.LBB7398:
.LBB7399:
.LBB7400:
.LBB7401:
	.loc 7 142 0
	movq	$_ZNSt6thread4joinEv, 8(%rsp)
	movq	$0, 16(%rsp)
.LBE7401:
.LBE7400:
.LBE7399:
.LBE7398:
.LBE7397:
.LBE7396:
.LBE7395:
.LBE7394:
.LBE7393:
	.loc 1 1482 0
	movq	%rax, (%rsp)
.LVL212:
.LBB7408:
.LBB7406:
	.loc 13 776 0
	movq	_ZSt15__once_callable@gottpoff(%rip), %rax
.LVL213:
	movq	%rsp, %fs:(%rax)
	.loc 13 777 0
	movq	_ZSt11__once_call@gottpoff(%rip), %rax
	movq	$_ZSt16__once_call_implISt12_Bind_simpleIFSt7_Mem_fnIMSt6threadFvvEESt17reference_wrapperIS2_EEEEvv, %fs:(%rax)
.LBB7402:
.LBB7403:
	.loc 14 698 0
	movl	$_ZL28__gthrw___pthread_key_createPjPFvPvE, %eax
	testq	%rax, %rax
	je	.L174
	.loc 14 699 0
	movl	$__once_proxy, %esi
	call	_ZL20__gthrw_pthread_oncePiPFvvE
.LVL214:
.LBE7403:
.LBE7402:
	.loc 13 793 0
	testl	%eax, %eax
	jne	.L170
.LVL215:
.LBE7406:
.LBE7408:
.LBE7410:
.LBE7412:
.LBB7413:
.LBB7414:
	.loc 5 183 0
	movq	128(%rbx), %rdi
	testq	%rdi, %rdi
	je	.L172
.LVL216:
.LBB7415:
.LBB7416:
	.loc 1 196 0
	movq	(%rdi), %rax
.LVL217:
	call	*(%rax)
.LVL218:
.L172:
.LBE7416:
.LBE7415:
.LBE7414:
.LBE7413:
.LBB7418:
.LBB7419:
.LBB7420:
.LBB7421:
.LBB7422:
	.loc 6 142 0
	cmpq	$0, 112(%rbx)
.LBE7422:
.LBE7421:
.LBE7420:
.LBE7419:
.LBE7418:
.LBB7431:
.LBB7417:
	.loc 5 185 0
	movq	$0, 128(%rbx)
.LVL219:
.LBE7417:
.LBE7431:
.LBB7432:
.LBB7429:
	.loc 1 1475 0
	movq	$_ZTVNSt13__future_base19_Async_state_commonE+16, (%rbx)
.LVL220:
.LBB7427:
.LBB7425:
.LBB7423:
	.loc 6 142 0
	jne	.L179
.LBE7423:
.LBE7425:
.LBE7427:
	.loc 1 1475 0
	movq	%rbx, %rdi
	call	_ZNSt13__future_base11_State_baseD2Ev
.LVL221:
.LBE7429:
.LBE7432:
.LBE7390:
.LBE7389:
.LBE7388:
.LBE7387:
.LBE7386:
	.loc 2 407 0
	addq	$32, %rsp
	.cfi_remember_state
	.cfi_def_cfa_offset 16
.LVL222:
	popq	%rbx
	.cfi_def_cfa_offset 8
.LVL223:
	ret
.LVL224:
.L174:
	.cfi_restore_state
.LBB7439:
.LBB7438:
.LBB7437:
.LBB7436:
.LBB7435:
.LBB7433:
.LBB7411:
.LBB7409:
.LBB7407:
.LBB7405:
.LBB7404:
	.loc 14 701 0
	orl	$-1, %eax
.LVL225:
.L170:
.LBE7404:
.LBE7405:
	.loc 13 794 0
	movl	%eax, %edi
	call	_ZSt20__throw_system_errori
.LVL226:
.L179:
.LBE7407:
.LBE7409:
.LBE7411:
.LBE7433:
.LBB7434:
.LBB7430:
.LBB7428:
.LBB7426:
.LBB7424:
	.loc 6 143 0
	call	_ZSt9terminatev
.LVL227:
.LBE7424:
.LBE7426:
.LBE7428:
.LBE7430:
.LBE7434:
.LBE7435:
.LBE7436:
.LBE7437:
.LBE7438:
.LBE7439:
	.cfi_endproc
.LFE7248:
	.section	.gcc_except_table
.LLSDA7248:
	.byte	0xff
	.byte	0xff
	.byte	0x1
	.uleb128 .LLSDACSE7248-.LLSDACSB7248
.LLSDACSB7248:
.LLSDACSE7248:
	.text
	.size	_ZNSt23_Sp_counted_ptr_inplaceINSt13__future_base17_Async_state_implISt12_Bind_simpleIFZN5Paths18runMakePathsBufferERSt6vectorI4PathSaIS5_EEN14TimeSeparation8PositionEEUlvE_vEEvEESaISE_ELN9__gnu_cxx12_Lock_policyE2EE10_M_disposeEv, .-_ZNSt23_Sp_counted_ptr_inplaceINSt13__future_base17_Async_state_implISt12_Bind_simpleIFZN5Paths18runMakePathsBufferERSt6vectorI4PathSaIS5_EEN14TimeSeparation8PositionEEUlvE_vEEvEESaISE_ELN9__gnu_cxx12_Lock_policyE2EE10_M_disposeEv
	.align 2
	.p2align 4,,15
	.type	_ZNSt13__future_base17_Async_state_implISt12_Bind_simpleIFZN5Paths18runMakePathsBufferERSt6vectorI4PathSaIS4_EEN14TimeSeparation8PositionEEUlvE_vEEvED0Ev, @function
_ZNSt13__future_base17_Async_state_implISt12_Bind_simpleIFZN5Paths18runMakePathsBufferERSt6vectorI4PathSaIS4_EEN14TimeSeparation8PositionEEUlvE_vEEvED0Ev:
.LFB7262:
	.loc 1 1502 0
	.cfi_startproc
	.cfi_personality 0x3,__gxx_personality_v0
	.cfi_lsda 0x3,.LLSDA7262
.LVL228:
	pushq	%rbx
	.cfi_def_cfa_offset 16
	.cfi_offset 3, -16
.LBB7475:
.LBB7476:
.LBB7477:
.LBB7478:
	.loc 1 1482 0
	leaq	112(%rdi), %rax
.LBE7478:
.LBE7477:
.LBE7476:
.LBE7475:
	.loc 1 1502 0
	movq	%rdi, %rbx
.LBB7526:
.LBB7523:
.LBB7499:
.LBB7496:
.LBB7479:
.LBB7480:
	.loc 13 786 0
	leaq	120(%rdi), %rdi
.LVL229:
.LBE7480:
.LBE7479:
.LBE7496:
.LBE7499:
.LBE7523:
.LBE7526:
	.loc 1 1502 0
	subq	$32, %rsp
	.cfi_def_cfa_offset 48
.LBB7527:
.LBB7524:
	.loc 1 1502 0
	movq	$_ZTVNSt13__future_base17_Async_state_implISt12_Bind_simpleIFZN5Paths18runMakePathsBufferERSt6vectorI4PathSaIS4_EEN14TimeSeparation8PositionEEUlvE_vEEvEE+16, -120(%rdi)
.LVL230:
.LBB7500:
.LBB7497:
	.loc 1 1482 0
	movq	%rax, (%rsp)
.LVL231:
.LBB7494:
.LBB7492:
	.loc 13 776 0
	movq	_ZSt15__once_callable@gottpoff(%rip), %rax
.LBB7481:
.LBB7482:
.LBB7483:
.LBB7484:
.LBB7485:
.LBB7486:
.LBB7487:
	.loc 7 142 0
	movq	$_ZNSt6thread4joinEv, 8(%rsp)
	movq	$0, 16(%rsp)
.LBE7487:
.LBE7486:
.LBE7485:
.LBE7484:
.LBE7483:
.LBE7482:
.LBE7481:
	.loc 13 776 0
	movq	%rsp, %fs:(%rax)
	.loc 13 777 0
	movq	_ZSt11__once_call@gottpoff(%rip), %rax
	movq	$_ZSt16__once_call_implISt12_Bind_simpleIFSt7_Mem_fnIMSt6threadFvvEESt17reference_wrapperIS2_EEEEvv, %fs:(%rax)
.LBB7488:
.LBB7489:
	.loc 14 698 0
	movl	$_ZL28__gthrw___pthread_key_createPjPFvPvE, %eax
	testq	%rax, %rax
	je	.L185
	.loc 14 699 0
	movl	$__once_proxy, %esi
	call	_ZL20__gthrw_pthread_oncePiPFvvE
.LVL232:
.LBE7489:
.LBE7488:
	.loc 13 793 0
	testl	%eax, %eax
	jne	.L181
.LVL233:
.LBE7492:
.LBE7494:
.LBE7497:
.LBE7500:
.LBB7501:
.LBB7502:
	.loc 5 183 0
	movq	128(%rbx), %rdi
	testq	%rdi, %rdi
	je	.L183
.LVL234:
.LBB7503:
.LBB7504:
	.loc 1 196 0
	movq	(%rdi), %rax
.LVL235:
	call	*(%rax)
.LVL236:
.L183:
.LBE7504:
.LBE7503:
.LBE7502:
.LBE7501:
.LBB7506:
.LBB7507:
.LBB7508:
.LBB7509:
.LBB7510:
	.loc 6 142 0
	cmpq	$0, 112(%rbx)
.LBE7510:
.LBE7509:
.LBE7508:
.LBE7507:
.LBE7506:
.LBB7519:
.LBB7505:
	.loc 5 185 0
	movq	$0, 128(%rbx)
.LVL237:
.LBE7505:
.LBE7519:
.LBB7520:
.LBB7517:
	.loc 1 1475 0
	movq	$_ZTVNSt13__future_base19_Async_state_commonE+16, (%rbx)
.LVL238:
.LBB7515:
.LBB7513:
.LBB7511:
	.loc 6 142 0
	jne	.L190
.LBE7511:
.LBE7513:
.LBE7515:
	.loc 1 1475 0
	movq	%rbx, %rdi
	call	_ZNSt13__future_base11_State_baseD2Ev
.LVL239:
.LBE7517:
.LBE7520:
.LBE7524:
.LBE7527:
	.loc 1 1502 0
	movq	%rbx, %rdi
	call	_ZdlPv
.LVL240:
	addq	$32, %rsp
	.cfi_remember_state
	.cfi_def_cfa_offset 16
.LVL241:
	popq	%rbx
	.cfi_def_cfa_offset 8
.LVL242:
	ret
.LVL243:
.L185:
	.cfi_restore_state
.LBB7528:
.LBB7525:
.LBB7521:
.LBB7498:
.LBB7495:
.LBB7493:
.LBB7491:
.LBB7490:
	.loc 14 701 0
	orl	$-1, %eax
.LVL244:
.L181:
.LBE7490:
.LBE7491:
	.loc 13 794 0
	movl	%eax, %edi
	call	_ZSt20__throw_system_errori
.LVL245:
.L190:
.LBE7493:
.LBE7495:
.LBE7498:
.LBE7521:
.LBB7522:
.LBB7518:
.LBB7516:
.LBB7514:
.LBB7512:
	.loc 6 143 0
	call	_ZSt9terminatev
.LVL246:
.LBE7512:
.LBE7514:
.LBE7516:
.LBE7518:
.LBE7522:
.LBE7525:
.LBE7528:
	.cfi_endproc
.LFE7262:
	.section	.gcc_except_table
.LLSDA7262:
	.byte	0xff
	.byte	0xff
	.byte	0x1
	.uleb128 .LLSDACSE7262-.LLSDACSB7262
.LLSDACSB7262:
.LLSDACSE7262:
	.text
	.size	_ZNSt13__future_base17_Async_state_implISt12_Bind_simpleIFZN5Paths18runMakePathsBufferERSt6vectorI4PathSaIS4_EEN14TimeSeparation8PositionEEUlvE_vEEvED0Ev, .-_ZNSt13__future_base17_Async_state_implISt12_Bind_simpleIFZN5Paths18runMakePathsBufferERSt6vectorI4PathSaIS4_EEN14TimeSeparation8PositionEEUlvE_vEEvED0Ev
	.section	.text._ZNSt15basic_stringbufIcSt11char_traitsIcESaIcEED2Ev,"axG",@progbits,_ZNSt15basic_stringbufIcSt11char_traitsIcESaIcEED5Ev,comdat
	.align 2
	.p2align 4,,15
	.weak	_ZNSt15basic_stringbufIcSt11char_traitsIcESaIcEED2Ev
	.type	_ZNSt15basic_stringbufIcSt11char_traitsIcESaIcEED2Ev, @function
_ZNSt15basic_stringbufIcSt11char_traitsIcESaIcEED2Ev:
.LFB5704:
	.file 16 "/usr/include/c++/4.8/sstream"
	.loc 16 64 0
	.cfi_startproc
.LVL247:
	pushq	%rbx
	.cfi_def_cfa_offset 16
	.cfi_offset 3, -16
	movq	%rdi, %rbx
	subq	$16, %rsp
	.cfi_def_cfa_offset 32
.LBB7557:
.LBB7558:
.LBB7559:
.LBB7560:
.LBB7561:
.LBB7562:
.LBB7563:
	.file 17 "/usr/include/c++/4.8/bits/basic_string.h"
	.loc 17 293 0
	movq	72(%rdi), %rax
.LBE7563:
.LBE7562:
.LBE7561:
.LBE7560:
.LBE7559:
.LBE7558:
	.loc 16 64 0
	movq	$_ZTVSt15basic_stringbufIcSt11char_traitsIcESaIcEE+16, (%rdi)
.LVL248:
.LBB7580:
.LBB7578:
	.loc 17 539 0
	leaq	-24(%rax), %rdi
.LVL249:
.LBB7564:
.LBB7565:
	.loc 17 240 0
	cmpq	$_ZNSs4_Rep20_S_empty_rep_storageE, %rdi
	jne	.L198
.LVL250:
.L193:
.LBE7565:
.LBE7564:
.LBE7578:
.LBE7580:
.LBB7581:
.LBB7582:
	.file 18 "/usr/include/c++/4.8/streambuf"
	.loc 18 198 0
	leaq	56(%rbx), %rdi
	movq	$_ZTVSt15basic_streambufIcSt11char_traitsIcEE+16, (%rbx)
	call	_ZNSt6localeD1Ev
.LVL251:
.LBE7582:
.LBE7581:
.LBE7557:
	.loc 16 64 0
	addq	$16, %rsp
	.cfi_remember_state
	.cfi_def_cfa_offset 16
	popq	%rbx
	.cfi_def_cfa_offset 8
.LVL252:
	ret
.LVL253:
.L198:
	.cfi_restore_state
.LBB7584:
.LBB7583:
.LBB7579:
.LBB7577:
.LBB7576:
.LBB7566:
.LBB7567:
	.file 19 "/usr/include/c++/4.8/ext/atomicity.h"
	.loc 19 81 0
	movl	$_ZL28__gthrw___pthread_key_createPjPFvPvE, %ecx
.LBE7567:
.LBE7566:
	.loc 17 246 0
	leaq	16(%rdi), %rdx
.LVL254:
.LBB7574:
.LBB7572:
	.loc 19 81 0
	testq	%rcx, %rcx
	je	.L194
.LVL255:
.LBB7568:
.LBB7569:
	.loc 19 49 0
	orl	$-1, %eax
	lock xaddl	%eax, (%rdx)
.LVL256:
.L195:
.LBE7569:
.LBE7568:
.LBE7572:
.LBE7574:
	.loc 17 245 0
	testl	%eax, %eax
	jg	.L193
	.loc 17 249 0
	leaq	15(%rsp), %rsi
.LVL257:
	call	_ZNSs4_Rep10_M_destroyERKSaIcE
.LVL258:
	jmp	.L193
.LVL259:
.L194:
.LBB7575:
.LBB7573:
.LBB7570:
.LBB7571:
	.loc 19 67 0
	movl	-8(%rax), %edx
.LVL260:
	.loc 19 68 0
	leal	-1(%rdx), %ecx
	movl	%ecx, -8(%rax)
.LBE7571:
.LBE7570:
	.loc 19 84 0
	movl	%edx, %eax
	jmp	.L195
.LBE7573:
.LBE7575:
.LBE7576:
.LBE7577:
.LBE7579:
.LBE7583:
.LBE7584:
	.cfi_endproc
.LFE5704:
	.size	_ZNSt15basic_stringbufIcSt11char_traitsIcESaIcEED2Ev, .-_ZNSt15basic_stringbufIcSt11char_traitsIcESaIcEED2Ev
	.weak	_ZNSt15basic_stringbufIcSt11char_traitsIcESaIcEED1Ev
	.set	_ZNSt15basic_stringbufIcSt11char_traitsIcESaIcEED1Ev,_ZNSt15basic_stringbufIcSt11char_traitsIcESaIcEED2Ev
	.section	.text._ZNSt15basic_stringbufIcSt11char_traitsIcESaIcEED0Ev,"axG",@progbits,_ZNSt15basic_stringbufIcSt11char_traitsIcESaIcEED0Ev,comdat
	.align 2
	.p2align 4,,15
	.weak	_ZNSt15basic_stringbufIcSt11char_traitsIcESaIcEED0Ev
	.type	_ZNSt15basic_stringbufIcSt11char_traitsIcESaIcEED0Ev, @function
_ZNSt15basic_stringbufIcSt11char_traitsIcESaIcEED0Ev:
.LFB5706:
	.loc 16 64 0
	.cfi_startproc
.LVL261:
	pushq	%rbx
	.cfi_def_cfa_offset 16
	.cfi_offset 3, -16
	movq	%rdi, %rbx
	subq	$16, %rsp
	.cfi_def_cfa_offset 32
.LBB7606:
.LBB7607:
.LBB7608:
.LBB7609:
.LBB7610:
.LBB7611:
.LBB7612:
.LBB7613:
	.loc 17 293 0
	movq	72(%rdi), %rax
.LBE7613:
.LBE7612:
.LBE7611:
.LBE7610:
.LBE7609:
.LBE7608:
	.loc 16 64 0
	movq	$_ZTVSt15basic_stringbufIcSt11char_traitsIcESaIcEE+16, (%rdi)
.LVL262:
.LBB7630:
.LBB7628:
	.loc 17 539 0
	leaq	-24(%rax), %rdi
.LVL263:
.LBB7614:
.LBB7615:
	.loc 17 240 0
	cmpq	$_ZNSs4_Rep20_S_empty_rep_storageE, %rdi
	jne	.L206
.LVL264:
.L201:
.LBE7615:
.LBE7614:
.LBE7628:
.LBE7630:
.LBB7631:
.LBB7632:
	.loc 18 198 0
	leaq	56(%rbx), %rdi
	movq	$_ZTVSt15basic_streambufIcSt11char_traitsIcEE+16, (%rbx)
	call	_ZNSt6localeD1Ev
.LVL265:
.LBE7632:
.LBE7631:
.LBE7607:
.LBE7606:
	.loc 16 64 0
	movq	%rbx, %rdi
	call	_ZdlPv
.LVL266:
	addq	$16, %rsp
	.cfi_remember_state
	.cfi_def_cfa_offset 16
	popq	%rbx
	.cfi_def_cfa_offset 8
.LVL267:
	ret
.LVL268:
.L206:
	.cfi_restore_state
.LBB7635:
.LBB7634:
.LBB7633:
.LBB7629:
.LBB7627:
.LBB7626:
.LBB7616:
.LBB7617:
	.loc 19 81 0
	movl	$_ZL28__gthrw___pthread_key_createPjPFvPvE, %ecx
.LBE7617:
.LBE7616:
	.loc 17 246 0
	leaq	16(%rdi), %rdx
.LVL269:
.LBB7624:
.LBB7622:
	.loc 19 81 0
	testq	%rcx, %rcx
	je	.L202
.LVL270:
.LBB7618:
.LBB7619:
	.loc 19 49 0
	orl	$-1, %eax
	lock xaddl	%eax, (%rdx)
.LVL271:
.L203:
.LBE7619:
.LBE7618:
.LBE7622:
.LBE7624:
	.loc 17 245 0
	testl	%eax, %eax
	jg	.L201
	.loc 17 249 0
	leaq	15(%rsp), %rsi
.LVL272:
	call	_ZNSs4_Rep10_M_destroyERKSaIcE
.LVL273:
	jmp	.L201
.LVL274:
.L202:
.LBB7625:
.LBB7623:
.LBB7620:
.LBB7621:
	.loc 19 67 0
	movl	-8(%rax), %edx
.LVL275:
	.loc 19 68 0
	leal	-1(%rdx), %ecx
	movl	%ecx, -8(%rax)
.LBE7621:
.LBE7620:
	.loc 19 84 0
	movl	%edx, %eax
	jmp	.L203
.LBE7623:
.LBE7625:
.LBE7626:
.LBE7627:
.LBE7629:
.LBE7633:
.LBE7634:
.LBE7635:
	.cfi_endproc
.LFE5706:
	.size	_ZNSt15basic_stringbufIcSt11char_traitsIcESaIcEED0Ev, .-_ZNSt15basic_stringbufIcSt11char_traitsIcESaIcEED0Ev
	.text
	.align 2
	.p2align 4,,15
	.type	_ZNSt13__future_base15_Deferred_stateISt12_Bind_simpleIFZN5Paths18runMakePathsBufferERSt6vectorI4PathSaIS4_EEN14TimeSeparation8PositionEEUlvE_vEEvE15_M_run_deferredEv, @function
_ZNSt13__future_base15_Deferred_stateISt12_Bind_simpleIFZN5Paths18runMakePathsBufferERSt6vectorI4PathSaIS4_EEN14TimeSeparation8PositionEEUlvE_vEEvE15_M_run_deferredEv:
.LFB7258:
	.loc 1 1462 0
	.cfi_startproc
	.cfi_personality 0x3,__gxx_personality_v0
	.cfi_lsda 0x3,.LLSDA7258
.LVL276:
	pushq	%rbp
	.cfi_def_cfa_offset 16
	.cfi_offset 6, -16
	pushq	%rbx
	.cfi_def_cfa_offset 24
	.cfi_offset 3, -24
	movq	%rdi, %rbx
	subq	$152, %rsp
	.cfi_def_cfa_offset 176
	.loc 1 1462 0
	movq	%fs:40, %rax
	movq	%rax, 136(%rsp)
	xorl	%eax, %eax
.LVL277:
	.loc 1 1465 0
	leaq	112(%rdi), %rax
.LVL278:
.LBB7722:
.LBB7723:
.LBB7724:
.LBB7725:
	.loc 3 2459 0
	movq	$_ZNSt17_Function_handlerIFvvESt17reference_wrapperISt12_Bind_simpleIFZN5Paths18runMakePathsBufferERSt6vectorI4PathSaIS5_EEN14TimeSeparation8PositionEEUlvE_vEEEE9_M_invokeERKSt9_Any_data, 128(%rsp)
	.loc 3 2460 0
	movq	$_ZNSt14_Function_base12_Ref_managerISt12_Bind_simpleIFZN5Paths18runMakePathsBufferERSt6vectorI4PathSaIS4_EEN14TimeSeparation8PositionEEUlvE_vEEE10_M_managerERSt9_Any_dataRKSE_St18_Manager_operation, 120(%rsp)
.LBE7725:
.LBE7724:
.LBE7723:
.LBE7722:
.LBB7726:
.LBB7727:
.LBB7728:
	.loc 3 2025 0
	movq	$0, 80(%rsp)
.LBE7728:
.LBE7727:
.LBE7726:
	.loc 1 1465 0
	movq	%rax, 96(%rsp)
.LVL279:
	leaq	120(%rdi), %rax
.LVL280:
.LBB7815:
.LBB7729:
.LBB7730:
.LBB7731:
.LBB7732:
	.loc 3 1987 0
	movl	$40, %edi
.LVL281:
.LBE7732:
.LBE7731:
.LBE7730:
.LBE7729:
.LBE7815:
	.loc 1 1465 0
	movq	%rax, 104(%rsp)
.LEHB9:
.LBB7816:
.LBB7806:
.LBB7800:
.LBB7794:
.LBB7788:
	.loc 3 1987 0
	call	_Znwm
.LEHE9:
.LVL282:
.LBB7733:
.LBB7734:
	.loc 1 1229 0
	movq	96(%rsp), %rdx
.LBB7735:
.LBB7736:
.LBB7737:
.LBB7738:
	.loc 15 176 0
	movq	8(%rax), %rsi
.LBE7738:
.LBE7737:
.LBE7736:
.LBE7735:
.LBE7734:
.LBE7733:
.LBE7788:
.LBE7794:
.LBE7800:
.LBE7806:
.LBE7816:
.LBB7817:
.LBB7818:
.LBB7819:
.LBB7820:
.LBB7821:
.LBB7822:
.LBB7823:
.LBB7824:
.LBB7825:
.LBB7826:
.LBB7827:
.LBB7828:
.LBB7829:
.LBB7830:
	.loc 3 446 0
	leaq	64(%rsp), %rbp
.LVL283:
.LBE7830:
.LBE7829:
.LBE7828:
.LBE7827:
.LBE7826:
.LBE7825:
.LBE7824:
.LBE7823:
.LBE7822:
.LBE7821:
.LBE7820:
.LBE7819:
.LBE7818:
.LBE7817:
.LBB7882:
.LBB7807:
.LBB7801:
.LBB7795:
.LBB7789:
.LBB7782:
.LBB7776:
.LBB7769:
.LBB7759:
.LBB7744:
.LBB7739:
	.loc 15 176 0
	movq	16(%rax), %rdi
.LBE7739:
.LBE7744:
.LBE7759:
.LBB7760:
.LBB7761:
	.loc 3 2025 0
	movq	$0, 24(%rax)
.LBE7761:
.LBE7760:
.LBB7762:
.LBB7745:
.LBB7746:
	.loc 15 176 0
	movq	32(%rax), %rcx
.LBE7746:
.LBE7745:
.LBE7762:
.LBE7769:
	.loc 1 1229 0
	movq	%rdx, (%rax)
.LVL284:
.LBB7770:
.LBB7763:
.LBB7749:
.LBB7740:
	.loc 15 175 0
	movq	112(%rsp), %r10
.LVL285:
	movq	104(%rsp), %r9
	.loc 15 176 0
	movq	%rdi, 112(%rsp)
.LVL286:
.LBE7740:
.LBE7749:
.LBE7763:
.LBE7770:
.LBE7776:
.LBE7782:
.LBE7789:
.LBE7795:
.LBE7801:
.LBE7807:
.LBE7882:
.LBB7883:
.LBB7876:
.LBB7871:
.LBB7866:
	.loc 13 786 0
	leaq	108(%rbx), %rdi
.LBE7866:
.LBE7871:
.LBE7876:
.LBE7883:
.LBB7884:
.LBB7808:
.LBB7802:
.LBB7796:
.LBB7790:
.LBB7783:
.LBB7777:
.LBB7771:
.LBB7764:
.LBB7750:
.LBB7741:
	.loc 15 176 0
	movq	%rsi, 104(%rsp)
.LBE7741:
.LBE7750:
.LBE7764:
.LBE7771:
.LBE7777:
.LBE7783:
	.loc 3 1987 0
	movq	%rax, 64(%rsp)
.LBB7784:
.LBB7778:
.LBB7772:
.LBB7765:
.LBB7751:
.LBB7742:
	.loc 15 177 0
	movq	%r10, 16(%rax)
.LVL287:
.LBE7742:
.LBE7751:
.LBE7765:
.LBE7772:
.LBE7778:
.LBE7784:
.LBE7790:
.LBE7796:
.LBE7802:
.LBE7808:
.LBE7884:
.LBB7885:
.LBB7877:
	.loc 1 354 0
	movb	$0, (%rsp)
.LBE7877:
.LBE7885:
.LBB7886:
.LBB7809:
.LBB7803:
.LBB7797:
.LBB7791:
.LBB7785:
.LBB7779:
.LBB7773:
.LBB7766:
.LBB7752:
.LBB7743:
	.loc 15 177 0
	movq	%r9, 8(%rax)
.LVL288:
.LBE7743:
.LBE7752:
.LBB7753:
.LBB7754:
	.loc 15 175 0
	movq	120(%rsp), %rdx
.LVL289:
	.loc 15 176 0
	movq	$0, 120(%rsp)
.LVL290:
.LBE7754:
.LBE7753:
.LBE7766:
.LBE7773:
.LBE7779:
.LBE7785:
.LBE7791:
.LBE7797:
.LBE7803:
	.loc 3 2460 0
	movq	$_ZNSt14_Function_base13_Base_managerINSt13__future_base12_Task_setterISt10unique_ptrINS1_7_ResultIvEENS1_12_Result_base8_DeleterEEvEEE10_M_managerERSt9_Any_dataRKSB_St18_Manager_operation, 80(%rsp)
.LBE7809:
.LBE7886:
.LBB7887:
.LBB7878:
.LBB7872:
.LBB7867:
.LBB7859:
.LBB7856:
.LBB7853:
.LBB7850:
.LBB7847:
.LBB7841:
.LBB7838:
.LBB7833:
.LBB7834:
.LBB7835:
.LBB7836:
	.loc 3 446 0
	movq	%rsp, 16(%rsp)
.LBE7836:
.LBE7835:
.LBE7834:
.LBE7833:
.LBB7837:
.LBB7832:
.LBB7831:
	movq	%rbp, 24(%rsp)
.LBE7831:
.LBE7832:
.LBE7837:
.LBE7838:
.LBE7841:
.LBE7847:
.LBE7850:
.LBE7853:
.LBE7856:
.LBE7859:
.LBE7867:
.LBE7872:
.LBE7878:
.LBE7887:
.LBB7888:
.LBB7810:
.LBB7804:
.LBB7798:
.LBB7792:
.LBB7786:
.LBB7780:
.LBB7774:
.LBB7767:
.LBB7756:
.LBB7755:
	.loc 15 177 0
	movq	%rdx, 24(%rax)
.LVL291:
.LBE7755:
.LBE7756:
.LBB7757:
.LBB7747:
	.loc 15 175 0
	movq	128(%rsp), %rdx
.LVL292:
	.loc 15 176 0
	movq	%rcx, 128(%rsp)
.LVL293:
.LBE7747:
.LBE7757:
.LBE7767:
.LBE7774:
.LBE7780:
.LBE7786:
.LBE7792:
.LBE7798:
.LBE7804:
	.loc 3 2459 0
	movq	$_ZNSt17_Function_handlerIFSt10unique_ptrINSt13__future_base12_Result_baseENS2_8_DeleterEEvENS1_12_Task_setterIS0_INS1_7_ResultIvEES3_EvEEE9_M_invokeERKSt9_Any_data, 88(%rsp)
.LBE7810:
.LBE7888:
.LBB7889:
.LBB7879:
.LBB7873:
.LBB7868:
.LBB7860:
.LBB7857:
.LBB7854:
.LBB7851:
.LBB7848:
.LBB7842:
.LBB7839:
.LBB7840:
	.loc 7 142 0
	movq	%rbx, 32(%rsp)
.LBE7840:
.LBE7839:
.LBE7842:
.LBB7843:
.LBB7844:
	movq	$_ZNSt13__future_base11_State_base9_M_do_setERSt8functionIFSt10unique_ptrINS_12_Result_baseENS3_8_DeleterEEvEERb, 40(%rsp)
.LBE7844:
.LBE7843:
.LBE7848:
.LBE7851:
.LBE7854:
.LBE7857:
.LBE7860:
.LBE7868:
.LBE7873:
.LBE7879:
.LBE7889:
.LBB7890:
.LBB7811:
.LBB7805:
.LBB7799:
.LBB7793:
.LBB7787:
.LBB7781:
.LBB7775:
.LBB7768:
.LBB7758:
.LBB7748:
	.loc 15 177 0
	movq	%rdx, 32(%rax)
.LVL294:
.LBE7748:
.LBE7758:
.LBE7768:
.LBE7775:
.LBE7781:
.LBE7787:
.LBE7793:
.LBE7799:
.LBE7805:
.LBE7811:
.LBE7890:
.LBB7891:
.LBB7880:
.LBB7874:
.LBB7869:
	.loc 13 776 0
	movq	_ZSt15__once_callable@gottpoff(%rip), %rax
.LVL295:
	leaq	16(%rsp), %rdx
.LVL296:
.LBB7861:
.LBB7858:
.LBB7855:
.LBB7852:
.LBB7849:
.LBB7846:
.LBB7845:
	.loc 7 142 0
	movq	$0, 48(%rsp)
.LVL297:
.LBE7845:
.LBE7846:
.LBE7849:
.LBE7852:
.LBE7855:
.LBE7858:
.LBE7861:
	.loc 13 776 0
	movq	%rdx, %fs:(%rax)
	.loc 13 777 0
	movq	_ZSt11__once_call@gottpoff(%rip), %rax
	movq	$_ZSt16__once_call_implISt12_Bind_simpleIFSt7_Mem_fnIMNSt13__future_base11_State_baseEFvRSt8functionIFSt10unique_ptrINS2_12_Result_baseENS6_8_DeleterEEvEERbEEPS3_St17reference_wrapperISA_ESH_IbEEEEvv, %fs:(%rax)
.LBB7862:
.LBB7863:
	.loc 14 698 0
	movl	$_ZL28__gthrw___pthread_key_createPjPFvPvE, %eax
	testq	%rax, %rax
	je	.L239
	.loc 14 699 0
	movl	$__once_proxy, %esi
.LEHB10:
	call	_ZL20__gthrw_pthread_oncePiPFvvE
.LEHE10:
.LVL298:
.LBE7863:
.LBE7862:
	.loc 13 793 0
	testl	%eax, %eax
	jne	.L209
.LBE7869:
.LBE7874:
	.loc 1 359 0
	cmpb	$0, (%rsp)
	jne	.L240
.LVL299:
.L214:
.LBE7880:
.LBE7891:
.LBB7892:
.LBB7893:
.LBB7894:
.LBB7895:
	.loc 3 2029 0
	movq	80(%rsp), %rax
	testq	%rax, %rax
	je	.L215
	.loc 3 2030 0
	movl	$3, %edx
	movq	%rbp, %rsi
	movq	%rbp, %rdi
	call	*%rax
.LVL300:
.L215:
.LBE7895:
.LBE7894:
.LBE7893:
.LBE7892:
.LBB7896:
.LBB7897:
.LBB7898:
.LBB7899:
.LBB7900:
	.loc 3 2029 0 discriminator 2
	movq	120(%rsp), %rax
	testq	%rax, %rax
	je	.L207
	.loc 3 2030 0
	leaq	104(%rsp), %rsi
.LVL301:
	movl	$3, %edx
	movq	%rsi, %rdi
	call	*%rax
.LVL302:
.L207:
.LBE7900:
.LBE7899:
.LBE7898:
.LBE7897:
.LBE7896:
	.loc 1 1466 0
	movq	136(%rsp), %rax
	xorq	%fs:40, %rax
	jne	.L241
	addq	$152, %rsp
	.cfi_remember_state
	.cfi_def_cfa_offset 24
.LVL303:
	popq	%rbx
	.cfi_def_cfa_offset 16
.LVL304:
	popq	%rbp
	.cfi_def_cfa_offset 8
.LVL305:
	ret
.LVL306:
	.p2align 4,,10
	.p2align 3
.L240:
	.cfi_restore_state
.LBB7901:
.LBB7881:
	.loc 1 360 0
	leaq	56(%rbx), %rdi
	call	_ZNSt18condition_variable10notify_allEv
.LVL307:
	jmp	.L214
.LVL308:
.L239:
.LBB7875:
.LBB7870:
.LBB7865:
.LBB7864:
	.loc 14 701 0
	orl	$-1, %eax
.LVL309:
.L209:
.LBE7864:
.LBE7865:
	.loc 13 794 0
	movl	%eax, %edi
.LEHB11:
	call	_ZSt20__throw_system_errori
.LEHE11:
.LVL310:
.L221:
.LBE7870:
.LBE7875:
.LBE7881:
.LBE7901:
.LBB7902:
.LBB7903:
.LBB7904:
.LBB7905:
	.loc 3 2029 0
	movq	80(%rsp), %rcx
	movq	%rax, %rbx
.LVL311:
	testq	%rcx, %rcx
	je	.L212
	.loc 3 2030 0
	movl	$3, %edx
	movq	%rbp, %rsi
	movq	%rbp, %rdi
	call	*%rcx
.LVL312:
.L212:
.LBE7905:
.LBE7904:
.LBE7903:
.LBE7902:
.LBB7906:
.LBB7907:
.LBB7908:
.LBB7909:
.LBB7910:
	.loc 3 2029 0
	movq	120(%rsp), %rax
	testq	%rax, %rax
	je	.L219
	.loc 3 2030 0
	leaq	104(%rsp), %rsi
.LVL313:
	movl	$3, %edx
	movq	%rsi, %rdi
	call	*%rax
.LVL314:
.L219:
	movq	%rbx, %rdi
.LEHB12:
	call	_Unwind_Resume
.LEHE12:
.LVL315:
.L241:
.LBE7910:
.LBE7909:
.LBE7908:
.LBE7907:
.LBE7906:
	.loc 1 1466 0
	call	__stack_chk_fail
.LVL316:
.L222:
.LBB7911:
.LBB7812:
.LBB7813:
.LBB7814:
	.loc 3 2029 0
	movq	80(%rsp), %rcx
	movq	%rax, %rbx
.LVL317:
	testq	%rcx, %rcx
	je	.L212
	.loc 3 2030 0
	leaq	64(%rsp), %rsi
.LVL318:
	movl	$3, %edx
	movq	%rsi, %rdi
	call	*%rcx
.LVL319:
	jmp	.L212
.LBE7814:
.LBE7813:
.LBE7812:
.LBE7911:
	.cfi_endproc
.LFE7258:
	.section	.gcc_except_table
.LLSDA7258:
	.byte	0xff
	.byte	0xff
	.byte	0x1
	.uleb128 .LLSDACSE7258-.LLSDACSB7258
.LLSDACSB7258:
	.uleb128 .LEHB9-.LFB7258
	.uleb128 .LEHE9-.LEHB9
	.uleb128 .L222-.LFB7258
	.uleb128 0
	.uleb128 .LEHB10-.LFB7258
	.uleb128 .LEHE10-.LEHB10
	.uleb128 .L221-.LFB7258
	.uleb128 0
	.uleb128 .LEHB11-.LFB7258
	.uleb128 .LEHE11-.LEHB11
	.uleb128 .L221-.LFB7258
	.uleb128 0
	.uleb128 .LEHB12-.LFB7258
	.uleb128 .LEHE12-.LEHB12
	.uleb128 0
	.uleb128 0
.LLSDACSE7258:
	.text
	.size	_ZNSt13__future_base15_Deferred_stateISt12_Bind_simpleIFZN5Paths18runMakePathsBufferERSt6vectorI4PathSaIS4_EEN14TimeSeparation8PositionEEUlvE_vEEvE15_M_run_deferredEv, .-_ZNSt13__future_base15_Deferred_stateISt12_Bind_simpleIFZN5Paths18runMakePathsBufferERSt6vectorI4PathSaIS4_EEN14TimeSeparation8PositionEEUlvE_vEEvE15_M_run_deferredEv
	.align 2
	.p2align 4,,15
	.type	_ZNSt6thread5_ImplISt12_Bind_simpleIFZNSt13__future_base17_Async_state_implIS1_IFZN5Paths18runMakePathsBufferERSt6vectorI4PathSaIS6_EEN14TimeSeparation8PositionEEUlvE_vEEvEC1EOSE_EUlvE_vEEE6_M_runEv, @function
_ZNSt6thread5_ImplISt12_Bind_simpleIFZNSt13__future_base17_Async_state_implIS1_IFZN5Paths18runMakePathsBufferERSt6vectorI4PathSaIS6_EEN14TimeSeparation8PositionEEUlvE_vEEvEC1EOSE_EUlvE_vEEE6_M_runEv:
.LFB7236:
	.loc 6 115 0
	.cfi_startproc
	.cfi_personality 0x3,__gxx_personality_v0
	.cfi_lsda 0x3,.LLSDA7236
.LVL320:
	pushq	%rbp
	.cfi_def_cfa_offset 16
	.cfi_offset 6, -16
	pushq	%rbx
	.cfi_def_cfa_offset 24
	.cfi_offset 3, -24
	movq	%rdi, %rbx
	subq	$152, %rsp
	.cfi_def_cfa_offset 176
	.loc 6 115 0
	movq	%fs:40, %rax
	movq	%rax, 136(%rsp)
	xorl	%eax, %eax
.LVL321:
.LBB8009:
.LBB8010:
.LBB8011:
.LBB8012:
.LBB8013:
	.loc 1 1498 0
	movq	24(%rdi), %rax
.LVL322:
.LBB8014:
.LBB8015:
.LBB8016:
.LBB8017:
.LBB8018:
	.loc 3 1987 0
	movl	$40, %edi
.LVL323:
.LBE8018:
.LBE8017:
.LBE8016:
.LBE8015:
.LBE8014:
.LBB8093:
.LBB8094:
.LBB8095:
.LBB8096:
	.loc 3 2459 0
	movq	$_ZNSt17_Function_handlerIFvvESt17reference_wrapperISt12_Bind_simpleIFZN5Paths18runMakePathsBufferERSt6vectorI4PathSaIS5_EEN14TimeSeparation8PositionEEUlvE_vEEEE9_M_invokeERKSt9_Any_data, 128(%rsp)
	.loc 3 2460 0
	movq	$_ZNSt14_Function_base12_Ref_managerISt12_Bind_simpleIFZN5Paths18runMakePathsBufferERSt6vectorI4PathSaIS4_EEN14TimeSeparation8PositionEEUlvE_vEEE10_M_managerERSt9_Any_dataRKSE_St18_Manager_operation, 120(%rsp)
.LBE8096:
.LBE8095:
.LBE8094:
.LBE8093:
.LBB8097:
.LBB8083:
.LBB8084:
	.loc 3 2025 0
	movq	$0, 80(%rsp)
.LBE8084:
.LBE8083:
.LBE8097:
	.loc 1 1498 0
	leaq	128(%rax), %rdx
.LVL324:
	addq	$136, %rax
.LVL325:
	movq	%rax, 104(%rsp)
	movq	%rdx, 96(%rsp)
.LVL326:
.LEHB13:
.LBB8098:
.LBB8085:
.LBB8078:
.LBB8073:
.LBB8068:
	.loc 3 1987 0
	call	_Znwm
.LEHE13:
.LVL327:
.LBB8019:
.LBB8020:
	.loc 1 1229 0
	movq	96(%rsp), %rdx
.LBB8021:
.LBB8022:
.LBB8023:
.LBB8024:
	.loc 15 176 0
	movq	8(%rax), %rsi
.LBE8024:
.LBE8023:
.LBE8022:
.LBE8021:
.LBE8020:
.LBE8019:
.LBE8068:
.LBE8073:
.LBE8078:
.LBE8085:
.LBE8098:
.LBB8099:
.LBB8100:
.LBB8101:
.LBB8102:
.LBB8103:
.LBB8104:
.LBB8105:
.LBB8106:
.LBB8107:
.LBB8108:
.LBB8109:
.LBB8110:
.LBB8111:
.LBB8112:
	.loc 3 446 0
	leaq	64(%rsp), %rbp
.LVL328:
.LBE8112:
.LBE8111:
.LBE8110:
.LBE8109:
.LBE8108:
.LBE8107:
.LBE8106:
.LBE8105:
.LBE8104:
.LBE8103:
.LBE8102:
.LBE8101:
.LBE8100:
.LBE8099:
.LBB8182:
.LBB8086:
.LBB8079:
.LBB8074:
.LBB8069:
.LBB8063:
.LBB8058:
.LBB8052:
.LBB8043:
.LBB8029:
.LBB8025:
	.loc 15 176 0
	movq	16(%rax), %rdi
.LBE8025:
.LBE8029:
.LBE8043:
.LBB8044:
.LBB8045:
	.loc 3 2025 0
	movq	$0, 24(%rax)
.LBE8045:
.LBE8044:
.LBB8046:
.LBB8030:
.LBB8031:
	.loc 15 176 0
	movq	32(%rax), %rcx
.LBE8031:
.LBE8030:
.LBE8046:
.LBE8052:
	.loc 1 1229 0
	movq	%rdx, (%rax)
.LVL329:
.LBB8053:
.LBB8047:
.LBB8034:
.LBB8026:
	.loc 15 175 0
	movq	112(%rsp), %r10
.LVL330:
	movq	104(%rsp), %r9
	.loc 15 176 0
	movq	%rdi, 112(%rsp)
.LVL331:
	movq	%rsi, 104(%rsp)
.LBE8026:
.LBE8034:
.LBE8047:
.LBE8053:
.LBE8058:
.LBE8063:
	.loc 3 1987 0
	movq	%rax, 64(%rsp)
.LBB8064:
.LBB8059:
.LBB8054:
.LBB8048:
.LBB8035:
.LBB8027:
	.loc 15 177 0
	movq	%r10, 16(%rax)
.LVL332:
.LBE8027:
.LBE8035:
.LBE8048:
.LBE8054:
.LBE8059:
.LBE8064:
.LBE8069:
.LBE8074:
.LBE8079:
.LBE8086:
.LBE8182:
.LBB8183:
.LBB8176:
	.loc 1 354 0
	movb	$0, 15(%rsp)
.LBE8176:
.LBE8183:
.LBB8184:
.LBB8087:
.LBB8080:
.LBB8075:
.LBB8070:
.LBB8065:
.LBB8060:
.LBB8055:
.LBB8049:
.LBB8036:
.LBB8028:
	.loc 15 177 0
	movq	%r9, 8(%rax)
.LVL333:
.LBE8028:
.LBE8036:
.LBB8037:
.LBB8038:
	.loc 15 175 0
	movq	120(%rsp), %rdx
.LVL334:
	.loc 15 176 0
	movq	$0, 120(%rsp)
.LVL335:
.LBE8038:
.LBE8037:
.LBE8049:
.LBE8055:
.LBE8060:
.LBE8065:
.LBE8070:
.LBE8075:
.LBE8080:
	.loc 3 2460 0
	movq	$_ZNSt14_Function_base13_Base_managerINSt13__future_base12_Task_setterISt10unique_ptrINS1_7_ResultIvEENS1_12_Result_base8_DeleterEEvEEE10_M_managerERSt9_Any_dataRKSB_St18_Manager_operation, 80(%rsp)
.LBE8087:
.LBE8184:
.LBB8185:
.LBB8177:
.LBB8171:
.LBB8166:
.LBB8157:
.LBB8152:
.LBB8147:
.LBB8142:
.LBB8137:
.LBB8129:
.LBB8124:
.LBB8115:
.LBB8114:
.LBB8113:
	.loc 3 446 0
	movq	%rbp, 24(%rsp)
.LBE8113:
.LBE8114:
.LBE8115:
.LBE8124:
.LBE8129:
.LBE8137:
.LBE8142:
.LBE8147:
.LBE8152:
.LBE8157:
.LBE8166:
.LBE8171:
.LBE8177:
.LBE8185:
.LBB8186:
.LBB8088:
.LBB8081:
.LBB8076:
.LBB8071:
.LBB8066:
.LBB8061:
.LBB8056:
.LBB8050:
.LBB8040:
.LBB8039:
	.loc 15 177 0
	movq	%rdx, 24(%rax)
.LVL336:
.LBE8039:
.LBE8040:
.LBB8041:
.LBB8032:
	.loc 15 175 0
	movq	128(%rsp), %rdx
.LVL337:
	.loc 15 176 0
	movq	%rcx, 128(%rsp)
.LVL338:
.LBE8032:
.LBE8041:
.LBE8050:
.LBE8056:
.LBE8061:
.LBE8066:
.LBE8071:
.LBE8076:
.LBE8081:
	.loc 3 2459 0
	movq	$_ZNSt17_Function_handlerIFSt10unique_ptrINSt13__future_base12_Result_baseENS2_8_DeleterEEvENS1_12_Task_setterIS0_INS1_7_ResultIvEES3_EvEEE9_M_invokeERKSt9_Any_data, 88(%rsp)
.LBE8088:
.LBE8186:
.LBB8187:
.LBB8178:
.LBB8172:
.LBB8167:
.LBB8158:
.LBB8153:
.LBB8148:
.LBB8143:
.LBB8138:
.LBB8130:
.LBB8131:
	.loc 7 142 0
	movq	$_ZNSt13__future_base11_State_base9_M_do_setERSt8functionIFSt10unique_ptrINS_12_Result_baseENS3_8_DeleterEEvEERb, 40(%rsp)
.LBE8131:
.LBE8130:
.LBE8138:
.LBE8143:
.LBE8148:
.LBE8153:
.LBE8158:
.LBE8167:
.LBE8172:
.LBE8178:
.LBE8187:
.LBB8188:
.LBB8089:
.LBB8082:
.LBB8077:
.LBB8072:
.LBB8067:
.LBB8062:
.LBB8057:
.LBB8051:
.LBB8042:
.LBB8033:
	.loc 15 177 0
	movq	%rdx, 32(%rax)
.LVL339:
.LBE8033:
.LBE8042:
.LBE8051:
.LBE8057:
.LBE8062:
.LBE8067:
.LBE8072:
.LBE8077:
.LBE8082:
.LBE8089:
.LBE8188:
.LBB8189:
.LBB8179:
.LBB8173:
.LBB8168:
.LBB8159:
.LBB8154:
.LBB8149:
.LBB8144:
.LBB8139:
.LBB8133:
.LBB8125:
.LBB8116:
.LBB8117:
.LBB8118:
.LBB8119:
	.loc 3 446 0
	leaq	15(%rsp), %rax
.LVL340:
.LBE8119:
.LBE8118:
.LBE8117:
.LBE8116:
.LBE8125:
.LBE8133:
.LBE8139:
.LBE8144:
.LBE8149:
.LBE8154:
.LBE8159:
	.loc 13 776 0
	leaq	16(%rsp), %rdx
.LVL341:
.LBE8168:
.LBE8173:
.LBE8179:
.LBE8189:
	.loc 1 1498 0
	movq	24(%rbx), %rbx
.LVL342:
.LBB8190:
.LBB8180:
.LBB8174:
.LBB8169:
.LBB8160:
.LBB8155:
.LBB8150:
.LBB8145:
.LBB8140:
.LBB8134:
.LBB8132:
	.loc 7 142 0
	movq	$0, 48(%rsp)
.LVL343:
.LBE8132:
.LBE8134:
.LBB8135:
.LBB8126:
.LBB8123:
.LBB8122:
.LBB8121:
.LBB8120:
	.loc 3 446 0
	movq	%rax, 16(%rsp)
.LVL344:
.LBE8120:
.LBE8121:
.LBE8122:
.LBE8123:
.LBE8126:
.LBE8135:
.LBE8140:
.LBE8145:
.LBE8150:
.LBE8155:
.LBE8160:
	.loc 13 776 0
	movq	_ZSt15__once_callable@gottpoff(%rip), %rax
.LVL345:
.LBB8161:
.LBB8156:
.LBB8151:
.LBB8146:
.LBB8141:
.LBB8136:
.LBB8127:
.LBB8128:
	.loc 7 142 0
	movq	%rbx, 32(%rsp)
.LVL346:
.LBE8128:
.LBE8127:
.LBE8136:
.LBE8141:
.LBE8146:
.LBE8151:
.LBE8156:
.LBE8161:
	.loc 13 786 0
	leaq	108(%rbx), %rdi
.LVL347:
	.loc 13 776 0
	movq	%rdx, %fs:(%rax)
	.loc 13 777 0
	movq	_ZSt11__once_call@gottpoff(%rip), %rax
	movq	$_ZSt16__once_call_implISt12_Bind_simpleIFSt7_Mem_fnIMNSt13__future_base11_State_baseEFvRSt8functionIFSt10unique_ptrINS2_12_Result_baseENS6_8_DeleterEEvEERbEEPS3_St17reference_wrapperISA_ESH_IbEEEEvv, %fs:(%rax)
.LBB8162:
.LBB8163:
	.loc 14 698 0
	movl	$_ZL28__gthrw___pthread_key_createPjPFvPvE, %eax
	testq	%rax, %rax
	je	.L272
	.loc 14 699 0
	movl	$__once_proxy, %esi
.LEHB14:
	call	_ZL20__gthrw_pthread_oncePiPFvvE
.LVL348:
.LBE8163:
.LBE8162:
	.loc 13 793 0
	testl	%eax, %eax
	jne	.L244
.LBE8169:
.LBE8174:
	.loc 1 359 0
	cmpb	$0, 15(%rsp)
	jne	.L273
	.loc 1 362 0
	movl	$2, %edi
	call	_ZSt20__throw_future_errori
.LEHE14:
.LVL349:
	.p2align 4,,10
	.p2align 3
.L273:
	.loc 1 360 0
	leaq	56(%rbx), %rdi
	call	_ZNSt18condition_variable10notify_allEv
.LVL350:
.LBE8180:
.LBE8190:
.LBB8191:
.LBB8192:
.LBB8193:
.LBB8194:
	.loc 3 2029 0
	movq	80(%rsp), %rax
	testq	%rax, %rax
	je	.L251
	.loc 3 2030 0
	movl	$3, %edx
	movq	%rbp, %rsi
	movq	%rbp, %rdi
	call	*%rax
.LVL351:
.L251:
.LBE8194:
.LBE8193:
.LBE8192:
.LBE8191:
.LBB8195:
.LBB8196:
.LBB8197:
.LBB8198:
.LBB8199:
	.loc 3 2029 0
	movq	120(%rsp), %rax
	testq	%rax, %rax
	je	.L242
	.loc 3 2030 0
	leaq	104(%rsp), %rsi
.LVL352:
	movl	$3, %edx
	movq	%rsi, %rdi
	call	*%rax
.LVL353:
.L242:
.LBE8199:
.LBE8198:
.LBE8197:
.LBE8196:
.LBE8195:
.LBE8013:
.LBE8012:
.LBE8011:
.LBE8010:
.LBE8009:
	.loc 6 115 0
	movq	136(%rsp), %rax
	xorq	%fs:40, %rax
	jne	.L274
	addq	$152, %rsp
	.cfi_remember_state
	.cfi_def_cfa_offset 24
	popq	%rbx
	.cfi_def_cfa_offset 16
.LVL354:
	popq	%rbp
	.cfi_def_cfa_offset 8
.LVL355:
	ret
.LVL356:
.L257:
	.cfi_restore_state
.LBB8219:
.LBB8217:
.LBB8215:
.LBB8213:
.LBB8211:
.LBB8200:
.LBB8201:
.LBB8202:
.LBB8203:
	.loc 3 2029 0
	movq	80(%rsp), %rcx
	movq	%rax, %rbx
.LVL357:
	testq	%rcx, %rcx
	je	.L247
	.loc 3 2030 0
	movl	$3, %edx
	movq	%rbp, %rsi
	movq	%rbp, %rdi
	call	*%rcx
.LVL358:
.L247:
.LBE8203:
.LBE8202:
.LBE8201:
.LBE8200:
.LBB8204:
.LBB8205:
.LBB8206:
.LBB8207:
.LBB8208:
	.loc 3 2029 0
	movq	120(%rsp), %rax
	testq	%rax, %rax
	je	.L255
	.loc 3 2030 0
	leaq	104(%rsp), %rsi
.LVL359:
	movl	$3, %edx
	movq	%rsi, %rdi
	call	*%rax
.LVL360:
.L255:
	movq	%rbx, %rdi
.LEHB15:
	call	_Unwind_Resume
.LEHE15:
.LVL361:
.L272:
.LBE8208:
.LBE8207:
.LBE8206:
.LBE8205:
.LBE8204:
.LBB8209:
.LBB8181:
.LBB8175:
.LBB8170:
.LBB8165:
.LBB8164:
	.loc 14 701 0
	orl	$-1, %eax
.LVL362:
.L244:
.LBE8164:
.LBE8165:
	.loc 13 794 0
	movl	%eax, %edi
.LEHB16:
	call	_ZSt20__throw_system_errori
.LEHE16:
.LVL363:
.L274:
.LBE8170:
.LBE8175:
.LBE8181:
.LBE8209:
.LBE8211:
.LBE8213:
.LBE8215:
.LBE8217:
.LBE8219:
	.loc 6 115 0
	call	__stack_chk_fail
.LVL364:
.L258:
.LBB8220:
.LBB8218:
.LBB8216:
.LBB8214:
.LBB8212:
.LBB8210:
.LBB8090:
.LBB8091:
.LBB8092:
	.loc 3 2029 0
	movq	80(%rsp), %rcx
	movq	%rax, %rbx
.LVL365:
	testq	%rcx, %rcx
	je	.L247
	.loc 3 2030 0
	leaq	64(%rsp), %rsi
.LVL366:
	movl	$3, %edx
	movq	%rsi, %rdi
	call	*%rcx
.LVL367:
	jmp	.L247
.LBE8092:
.LBE8091:
.LBE8090:
.LBE8210:
.LBE8212:
.LBE8214:
.LBE8216:
.LBE8218:
.LBE8220:
	.cfi_endproc
.LFE7236:
	.section	.gcc_except_table
.LLSDA7236:
	.byte	0xff
	.byte	0xff
	.byte	0x1
	.uleb128 .LLSDACSE7236-.LLSDACSB7236
.LLSDACSB7236:
	.uleb128 .LEHB13-.LFB7236
	.uleb128 .LEHE13-.LEHB13
	.uleb128 .L258-.LFB7236
	.uleb128 0
	.uleb128 .LEHB14-.LFB7236
	.uleb128 .LEHE14-.LEHB14
	.uleb128 .L257-.LFB7236
	.uleb128 0
	.uleb128 .LEHB15-.LFB7236
	.uleb128 .LEHE15-.LEHB15
	.uleb128 0
	.uleb128 0
	.uleb128 .LEHB16-.LFB7236
	.uleb128 .LEHE16-.LEHB16
	.uleb128 .L257-.LFB7236
	.uleb128 0
.LLSDACSE7236:
	.text
	.size	_ZNSt6thread5_ImplISt12_Bind_simpleIFZNSt13__future_base17_Async_state_implIS1_IFZN5Paths18runMakePathsBufferERSt6vectorI4PathSaIS6_EEN14TimeSeparation8PositionEEUlvE_vEEvEC1EOSE_EUlvE_vEEE6_M_runEv, .-_ZNSt6thread5_ImplISt12_Bind_simpleIFZNSt13__future_base17_Async_state_implIS1_IFZN5Paths18runMakePathsBufferERSt6vectorI4PathSaIS6_EEN14TimeSeparation8PositionEEUlvE_vEEvEC1EOSE_EUlvE_vEEE6_M_runEv
	.section	.text._ZNSt6thread10_Impl_baseD2Ev,"axG",@progbits,_ZNSt6thread10_Impl_baseD5Ev,comdat
	.align 2
	.p2align 4,,15
	.weak	_ZNSt6thread10_Impl_baseD2Ev
	.type	_ZNSt6thread10_Impl_baseD2Ev, @function
_ZNSt6thread10_Impl_baseD2Ev:
.LFB4356:
	.loc 6 97 0
	.cfi_startproc
.LVL368:
	pushq	%rbp
	.cfi_def_cfa_offset 16
	.cfi_offset 6, -16
	pushq	%rbx
	.cfi_def_cfa_offset 24
	.cfi_offset 3, -24
	subq	$8, %rsp
	.cfi_def_cfa_offset 32
.LBB8243:
.LBB8244:
.LBB8245:
.LBB8246:
.LBB8247:
.LBB8248:
	.loc 2 545 0
	movq	16(%rdi), %rbx
.LBE8248:
.LBE8247:
.LBE8246:
.LBE8245:
.LBE8244:
	.loc 6 97 0
	movq	$_ZTVNSt6thread10_Impl_baseE+16, (%rdi)
.LVL369:
.LBB8287:
.LBB8284:
.LBB8281:
.LBB8278:
.LBB8275:
	.loc 2 545 0
	testq	%rbx, %rbx
	je	.L275
.LVL370:
.LBB8249:
.LBB8250:
.LBB8251:
.LBB8252:
	.loc 19 81 0
	movl	$_ZL28__gthrw___pthread_key_createPjPFvPvE, %ebp
.LBE8252:
.LBE8251:
	.loc 2 141 0
	leaq	8(%rbx), %rax
.LVL371:
.LBB8259:
.LBB8257:
	.loc 19 81 0
	testq	%rbp, %rbp
	je	.L278
.LVL372:
.LBB8253:
.LBB8254:
	.loc 19 49 0
	movl	$-1, %edx
	lock xaddl	%edx, (%rax)
	movl	%edx, %eax
.LVL373:
.L279:
.LBE8254:
.LBE8253:
.LBE8257:
.LBE8259:
	.loc 2 141 0
	cmpl	$1, %eax
	je	.L284
.LVL374:
.L275:
.LBE8250:
.LBE8249:
.LBE8275:
.LBE8278:
.LBE8281:
.LBE8284:
.LBE8287:
.LBE8243:
	.loc 6 97 0
	addq	$8, %rsp
	.cfi_remember_state
	.cfi_def_cfa_offset 24
	popq	%rbx
	.cfi_def_cfa_offset 16
	popq	%rbp
	.cfi_def_cfa_offset 8
	ret
.LVL375:
	.p2align 4,,10
	.p2align 3
.L284:
	.cfi_restore_state
.LBB8290:
.LBB8288:
.LBB8285:
.LBB8282:
.LBB8279:
.LBB8276:
.LBB8273:
.LBB8271:
	.loc 2 144 0
	movq	(%rbx), %rax
	movq	%rbx, %rdi
.LVL376:
	call	*16(%rax)
.LVL377:
.LBB8260:
.LBB8261:
	.loc 19 81 0
	testq	%rbp, %rbp
.LBE8261:
.LBE8260:
	.loc 2 158 0
	leaq	12(%rbx), %rax
.LVL378:
.LBB8268:
.LBB8266:
	.loc 19 81 0
	je	.L281
.LVL379:
.LBB8262:
.LBB8263:
	.loc 19 49 0
	movl	$-1, %edx
	lock xaddl	%edx, (%rax)
	movl	%edx, %eax
.LVL380:
.L282:
.LBE8263:
.LBE8262:
.LBE8266:
.LBE8268:
	.loc 2 157 0
	cmpl	$1, %eax
	jne	.L275
	.loc 2 161 0
	movq	(%rbx), %rax
	movq	%rbx, %rdi
	movq	24(%rax), %rax
.LBE8271:
.LBE8273:
.LBE8276:
.LBE8279:
.LBE8282:
.LBE8285:
.LBE8288:
.LBE8290:
	.loc 6 97 0
	addq	$8, %rsp
	.cfi_remember_state
	.cfi_def_cfa_offset 24
	popq	%rbx
	.cfi_def_cfa_offset 16
.LVL381:
	popq	%rbp
	.cfi_def_cfa_offset 8
.LBB8291:
.LBB8289:
.LBB8286:
.LBB8283:
.LBB8280:
.LBB8277:
.LBB8274:
.LBB8272:
	.loc 2 161 0
	jmp	*%rax
.LVL382:
.L278:
	.cfi_restore_state
.LBB8269:
.LBB8258:
.LBB8255:
.LBB8256:
	.loc 19 67 0
	movl	8(%rbx), %eax
.LVL383:
	.loc 19 68 0
	leal	-1(%rax), %edx
	movl	%edx, 8(%rbx)
	jmp	.L279
.LVL384:
.L281:
.LBE8256:
.LBE8255:
.LBE8258:
.LBE8269:
.LBB8270:
.LBB8267:
.LBB8264:
.LBB8265:
	.loc 19 67 0
	movl	12(%rbx), %eax
.LVL385:
	.loc 19 68 0
	leal	-1(%rax), %edx
	movl	%edx, 12(%rbx)
	jmp	.L282
.LBE8265:
.LBE8264:
.LBE8267:
.LBE8270:
.LBE8272:
.LBE8274:
.LBE8277:
.LBE8280:
.LBE8283:
.LBE8286:
.LBE8289:
.LBE8291:
	.cfi_endproc
.LFE4356:
	.size	_ZNSt6thread10_Impl_baseD2Ev, .-_ZNSt6thread10_Impl_baseD2Ev
	.weak	_ZNSt6thread10_Impl_baseD1Ev
	.set	_ZNSt6thread10_Impl_baseD1Ev,_ZNSt6thread10_Impl_baseD2Ev
	.text
	.align 2
	.p2align 4,,15
	.type	_ZNSt6thread5_ImplISt12_Bind_simpleIFZNSt13__future_base17_Async_state_implIS1_IFZN5Paths18runMakePathsBufferERSt6vectorI4PathSaIS6_EEN14TimeSeparation8PositionEEUlvE_vEEvEC1EOSE_EUlvE_vEEED2Ev, @function
_ZNSt6thread5_ImplISt12_Bind_simpleIFZNSt13__future_base17_Async_state_implIS1_IFZN5Paths18runMakePathsBufferERSt6vectorI4PathSaIS6_EEN14TimeSeparation8PositionEEUlvE_vEEvEC1EOSE_EUlvE_vEEED2Ev:
.LFB7201:
	.loc 6 107 0
	.cfi_startproc
.LVL386:
	pushq	%rbp
	.cfi_def_cfa_offset 16
	.cfi_offset 6, -16
	pushq	%rbx
	.cfi_def_cfa_offset 24
	.cfi_offset 3, -24
	subq	$8, %rsp
	.cfi_def_cfa_offset 32
.LBB8316:
.LBB8317:
.LBB8318:
.LBB8319:
.LBB8320:
.LBB8321:
.LBB8322:
.LBB8323:
	.loc 2 545 0
	movq	16(%rdi), %rbx
.LBE8323:
.LBE8322:
.LBE8321:
.LBE8320:
.LBE8319:
	.loc 6 97 0
	movq	$_ZTVNSt6thread10_Impl_baseE+16, (%rdi)
.LVL387:
.LBB8362:
.LBB8359:
.LBB8356:
.LBB8353:
.LBB8350:
	.loc 2 545 0
	testq	%rbx, %rbx
	je	.L285
.LVL388:
.LBB8324:
.LBB8325:
.LBB8326:
.LBB8327:
	.loc 19 81 0
	movl	$_ZL28__gthrw___pthread_key_createPjPFvPvE, %ebp
.LBE8327:
.LBE8326:
	.loc 2 141 0
	leaq	8(%rbx), %rax
.LVL389:
.LBB8334:
.LBB8332:
	.loc 19 81 0
	testq	%rbp, %rbp
	je	.L288
.LVL390:
.LBB8328:
.LBB8329:
	.loc 19 49 0
	movl	$-1, %edx
	lock xaddl	%edx, (%rax)
	movl	%edx, %eax
.LVL391:
.L289:
.LBE8329:
.LBE8328:
.LBE8332:
.LBE8334:
	.loc 2 141 0
	cmpl	$1, %eax
	je	.L294
.LVL392:
.L285:
.LBE8325:
.LBE8324:
.LBE8350:
.LBE8353:
.LBE8356:
.LBE8359:
.LBE8362:
.LBE8318:
.LBE8317:
.LBE8316:
	.loc 6 107 0
	addq	$8, %rsp
	.cfi_remember_state
	.cfi_def_cfa_offset 24
	popq	%rbx
	.cfi_def_cfa_offset 16
	popq	%rbp
	.cfi_def_cfa_offset 8
	ret
.LVL393:
	.p2align 4,,10
	.p2align 3
.L294:
	.cfi_restore_state
.LBB8369:
.LBB8367:
.LBB8365:
.LBB8363:
.LBB8360:
.LBB8357:
.LBB8354:
.LBB8351:
.LBB8348:
.LBB8346:
	.loc 2 144 0
	movq	(%rbx), %rax
	movq	%rbx, %rdi
.LVL394:
	call	*16(%rax)
.LVL395:
.LBB8335:
.LBB8336:
	.loc 19 81 0
	testq	%rbp, %rbp
.LBE8336:
.LBE8335:
	.loc 2 158 0
	leaq	12(%rbx), %rax
.LVL396:
.LBB8343:
.LBB8341:
	.loc 19 81 0
	je	.L291
.LVL397:
.LBB8337:
.LBB8338:
	.loc 19 49 0
	movl	$-1, %edx
	lock xaddl	%edx, (%rax)
	movl	%edx, %eax
.LVL398:
.L292:
.LBE8338:
.LBE8337:
.LBE8341:
.LBE8343:
	.loc 2 157 0
	cmpl	$1, %eax
	jne	.L285
	.loc 2 161 0
	movq	(%rbx), %rax
	movq	%rbx, %rdi
	movq	24(%rax), %rax
.LBE8346:
.LBE8348:
.LBE8351:
.LBE8354:
.LBE8357:
.LBE8360:
.LBE8363:
.LBE8365:
.LBE8367:
.LBE8369:
	.loc 6 107 0
	addq	$8, %rsp
	.cfi_remember_state
	.cfi_def_cfa_offset 24
	popq	%rbx
	.cfi_def_cfa_offset 16
.LVL399:
	popq	%rbp
	.cfi_def_cfa_offset 8
.LBB8370:
.LBB8368:
.LBB8366:
.LBB8364:
.LBB8361:
.LBB8358:
.LBB8355:
.LBB8352:
.LBB8349:
.LBB8347:
	.loc 2 161 0
	jmp	*%rax
.LVL400:
.L288:
	.cfi_restore_state
.LBB8344:
.LBB8333:
.LBB8330:
.LBB8331:
	.loc 19 67 0
	movl	8(%rbx), %eax
.LVL401:
	.loc 19 68 0
	leal	-1(%rax), %edx
	movl	%edx, 8(%rbx)
	jmp	.L289
.LVL402:
.L291:
.LBE8331:
.LBE8330:
.LBE8333:
.LBE8344:
.LBB8345:
.LBB8342:
.LBB8339:
.LBB8340:
	.loc 19 67 0
	movl	12(%rbx), %eax
.LVL403:
	.loc 19 68 0
	leal	-1(%rax), %edx
	movl	%edx, 12(%rbx)
	jmp	.L292
.LBE8340:
.LBE8339:
.LBE8342:
.LBE8345:
.LBE8347:
.LBE8349:
.LBE8352:
.LBE8355:
.LBE8358:
.LBE8361:
.LBE8364:
.LBE8366:
.LBE8368:
.LBE8370:
	.cfi_endproc
.LFE7201:
	.size	_ZNSt6thread5_ImplISt12_Bind_simpleIFZNSt13__future_base17_Async_state_implIS1_IFZN5Paths18runMakePathsBufferERSt6vectorI4PathSaIS6_EEN14TimeSeparation8PositionEEUlvE_vEEvEC1EOSE_EUlvE_vEEED2Ev, .-_ZNSt6thread5_ImplISt12_Bind_simpleIFZNSt13__future_base17_Async_state_implIS1_IFZN5Paths18runMakePathsBufferERSt6vectorI4PathSaIS6_EEN14TimeSeparation8PositionEEUlvE_vEEvEC1EOSE_EUlvE_vEEED2Ev
	.set	_ZNSt6thread5_ImplISt12_Bind_simpleIFZNSt13__future_base17_Async_state_implIS1_IFZN5Paths18runMakePathsBufferERSt6vectorI4PathSaIS6_EEN14TimeSeparation8PositionEEUlvE_vEEvEC1EOSE_EUlvE_vEEED1Ev,_ZNSt6thread5_ImplISt12_Bind_simpleIFZNSt13__future_base17_Async_state_implIS1_IFZN5Paths18runMakePathsBufferERSt6vectorI4PathSaIS6_EEN14TimeSeparation8PositionEEUlvE_vEEvEC1EOSE_EUlvE_vEEED2Ev
	.section	.text._ZNSt6thread10_Impl_baseD0Ev,"axG",@progbits,_ZNSt6thread10_Impl_baseD0Ev,comdat
	.align 2
	.p2align 4,,15
	.weak	_ZNSt6thread10_Impl_baseD0Ev
	.type	_ZNSt6thread10_Impl_baseD0Ev, @function
_ZNSt6thread10_Impl_baseD0Ev:
.LFB4358:
	.loc 6 97 0
	.cfi_startproc
.LVL404:
	pushq	%r12
	.cfi_def_cfa_offset 16
	.cfi_offset 12, -16
	pushq	%rbp
	.cfi_def_cfa_offset 24
	.cfi_offset 6, -24
	pushq	%rbx
	.cfi_def_cfa_offset 32
	.cfi_offset 3, -32
.LBB8394:
.LBB8395:
.LBB8396:
.LBB8397:
.LBB8398:
.LBB8399:
.LBB8400:
	.loc 2 545 0
	movq	16(%rdi), %rbp
.LBE8400:
.LBE8399:
.LBE8398:
.LBE8397:
.LBE8396:
.LBE8395:
.LBE8394:
	.loc 6 97 0
	movq	%rdi, %rbx
.LBB8437:
.LBB8435:
	movq	$_ZTVNSt6thread10_Impl_baseE+16, (%rdi)
.LVL405:
.LBB8433:
.LBB8431:
.LBB8429:
.LBB8427:
.LBB8425:
	.loc 2 545 0
	testq	%rbp, %rbp
	je	.L297
.LVL406:
.LBB8401:
.LBB8402:
.LBB8403:
.LBB8404:
	.loc 19 81 0
	movl	$_ZL28__gthrw___pthread_key_createPjPFvPvE, %r12d
.LBE8404:
.LBE8403:
	.loc 2 141 0
	leaq	8(%rbp), %rax
.LVL407:
.LBB8411:
.LBB8409:
	.loc 19 81 0
	testq	%r12, %r12
	je	.L298
.LVL408:
.LBB8405:
.LBB8406:
	.loc 19 49 0
	movl	$-1, %edx
	lock xaddl	%edx, (%rax)
	movl	%edx, %eax
.LVL409:
.L299:
.LBE8406:
.LBE8405:
.LBE8409:
.LBE8411:
	.loc 2 141 0
	cmpl	$1, %eax
	je	.L304
.LVL410:
.L297:
.LBE8402:
.LBE8401:
.LBE8425:
.LBE8427:
.LBE8429:
.LBE8431:
.LBE8433:
.LBE8435:
.LBE8437:
	.loc 6 97 0
	movq	%rbx, %rdi
	popq	%rbx
	.cfi_remember_state
	.cfi_def_cfa_offset 24
.LVL411:
	popq	%rbp
	.cfi_def_cfa_offset 16
	popq	%r12
	.cfi_def_cfa_offset 8
	jmp	_ZdlPv
.LVL412:
	.p2align 4,,10
	.p2align 3
.L304:
	.cfi_restore_state
.LBB8438:
.LBB8436:
.LBB8434:
.LBB8432:
.LBB8430:
.LBB8428:
.LBB8426:
.LBB8424:
.LBB8423:
	.loc 2 144 0
	movq	0(%rbp), %rax
	movq	%rbp, %rdi
	call	*16(%rax)
.LVL413:
.LBB8412:
.LBB8413:
	.loc 19 81 0
	testq	%r12, %r12
.LBE8413:
.LBE8412:
	.loc 2 158 0
	leaq	12(%rbp), %rax
.LVL414:
.LBB8420:
.LBB8418:
	.loc 19 81 0
	je	.L301
.LVL415:
.LBB8414:
.LBB8415:
	.loc 19 49 0
	movl	$-1, %edx
	lock xaddl	%edx, (%rax)
	movl	%edx, %eax
.LVL416:
.L302:
.LBE8415:
.LBE8414:
.LBE8418:
.LBE8420:
	.loc 2 157 0
	cmpl	$1, %eax
	jne	.L297
	.loc 2 161 0
	movq	0(%rbp), %rax
	movq	%rbp, %rdi
	call	*24(%rax)
.LVL417:
	jmp	.L297
.LVL418:
.L298:
.LBB8421:
.LBB8410:
.LBB8407:
.LBB8408:
	.loc 19 67 0
	movl	8(%rbp), %eax
.LVL419:
	.loc 19 68 0
	leal	-1(%rax), %edx
	movl	%edx, 8(%rbp)
	jmp	.L299
.LVL420:
.L301:
.LBE8408:
.LBE8407:
.LBE8410:
.LBE8421:
.LBB8422:
.LBB8419:
.LBB8416:
.LBB8417:
	.loc 19 67 0
	movl	12(%rbp), %eax
.LVL421:
	.loc 19 68 0
	leal	-1(%rax), %edx
	movl	%edx, 12(%rbp)
	jmp	.L302
.LBE8417:
.LBE8416:
.LBE8419:
.LBE8422:
.LBE8423:
.LBE8424:
.LBE8426:
.LBE8428:
.LBE8430:
.LBE8432:
.LBE8434:
.LBE8436:
.LBE8438:
	.cfi_endproc
.LFE4358:
	.size	_ZNSt6thread10_Impl_baseD0Ev, .-_ZNSt6thread10_Impl_baseD0Ev
	.text
	.align 2
	.p2align 4,,15
	.type	_ZNSt6thread5_ImplISt12_Bind_simpleIFZNSt13__future_base17_Async_state_implIS1_IFZN5Paths18runMakePathsBufferERSt6vectorI4PathSaIS6_EEN14TimeSeparation8PositionEEUlvE_vEEvEC1EOSE_EUlvE_vEEED0Ev, @function
_ZNSt6thread5_ImplISt12_Bind_simpleIFZNSt13__future_base17_Async_state_implIS1_IFZN5Paths18runMakePathsBufferERSt6vectorI4PathSaIS6_EEN14TimeSeparation8PositionEEUlvE_vEEvEC1EOSE_EUlvE_vEEED0Ev:
.LFB7203:
	.loc 6 107 0
	.cfi_startproc
.LVL422:
	pushq	%r12
	.cfi_def_cfa_offset 16
	.cfi_offset 12, -16
	pushq	%rbp
	.cfi_def_cfa_offset 24
	.cfi_offset 6, -24
	pushq	%rbx
	.cfi_def_cfa_offset 32
	.cfi_offset 3, -32
.LBB8464:
.LBB8465:
.LBB8466:
.LBB8467:
.LBB8468:
.LBB8469:
.LBB8470:
.LBB8471:
.LBB8472:
	.loc 2 545 0
	movq	16(%rdi), %rbp
.LBE8472:
.LBE8471:
.LBE8470:
.LBE8469:
.LBE8468:
.LBE8467:
.LBE8466:
.LBE8465:
.LBE8464:
	.loc 6 107 0
	movq	%rdi, %rbx
.LBB8513:
.LBB8511:
.LBB8509:
.LBB8507:
	.loc 6 97 0
	movq	$_ZTVNSt6thread10_Impl_baseE+16, (%rdi)
.LVL423:
.LBB8505:
.LBB8503:
.LBB8501:
.LBB8499:
.LBB8497:
	.loc 2 545 0
	testq	%rbp, %rbp
	je	.L307
.LVL424:
.LBB8473:
.LBB8474:
.LBB8475:
.LBB8476:
	.loc 19 81 0
	movl	$_ZL28__gthrw___pthread_key_createPjPFvPvE, %r12d
.LBE8476:
.LBE8475:
	.loc 2 141 0
	leaq	8(%rbp), %rax
.LVL425:
.LBB8483:
.LBB8481:
	.loc 19 81 0
	testq	%r12, %r12
	je	.L308
.LVL426:
.LBB8477:
.LBB8478:
	.loc 19 49 0
	movl	$-1, %edx
	lock xaddl	%edx, (%rax)
	movl	%edx, %eax
.LVL427:
.L309:
.LBE8478:
.LBE8477:
.LBE8481:
.LBE8483:
	.loc 2 141 0
	cmpl	$1, %eax
	je	.L314
.LVL428:
.L307:
.LBE8474:
.LBE8473:
.LBE8497:
.LBE8499:
.LBE8501:
.LBE8503:
.LBE8505:
.LBE8507:
.LBE8509:
.LBE8511:
.LBE8513:
	.loc 6 107 0
	movq	%rbx, %rdi
	popq	%rbx
	.cfi_remember_state
	.cfi_def_cfa_offset 24
.LVL429:
	popq	%rbp
	.cfi_def_cfa_offset 16
	popq	%r12
	.cfi_def_cfa_offset 8
	jmp	_ZdlPv
.LVL430:
	.p2align 4,,10
	.p2align 3
.L314:
	.cfi_restore_state
.LBB8514:
.LBB8512:
.LBB8510:
.LBB8508:
.LBB8506:
.LBB8504:
.LBB8502:
.LBB8500:
.LBB8498:
.LBB8496:
.LBB8495:
	.loc 2 144 0
	movq	0(%rbp), %rax
	movq	%rbp, %rdi
	call	*16(%rax)
.LVL431:
.LBB8484:
.LBB8485:
	.loc 19 81 0
	testq	%r12, %r12
.LBE8485:
.LBE8484:
	.loc 2 158 0
	leaq	12(%rbp), %rax
.LVL432:
.LBB8492:
.LBB8490:
	.loc 19 81 0
	je	.L311
.LVL433:
.LBB8486:
.LBB8487:
	.loc 19 49 0
	movl	$-1, %edx
	lock xaddl	%edx, (%rax)
	movl	%edx, %eax
.LVL434:
.L312:
.LBE8487:
.LBE8486:
.LBE8490:
.LBE8492:
	.loc 2 157 0
	cmpl	$1, %eax
	jne	.L307
	.loc 2 161 0
	movq	0(%rbp), %rax
	movq	%rbp, %rdi
	call	*24(%rax)
.LVL435:
	jmp	.L307
.LVL436:
.L308:
.LBB8493:
.LBB8482:
.LBB8479:
.LBB8480:
	.loc 19 67 0
	movl	8(%rbp), %eax
.LVL437:
	.loc 19 68 0
	leal	-1(%rax), %edx
	movl	%edx, 8(%rbp)
	jmp	.L309
.LVL438:
.L311:
.LBE8480:
.LBE8479:
.LBE8482:
.LBE8493:
.LBB8494:
.LBB8491:
.LBB8488:
.LBB8489:
	.loc 19 67 0
	movl	12(%rbp), %eax
.LVL439:
	.loc 19 68 0
	leal	-1(%rax), %edx
	movl	%edx, 12(%rbp)
	jmp	.L312
.LBE8489:
.LBE8488:
.LBE8491:
.LBE8494:
.LBE8495:
.LBE8496:
.LBE8498:
.LBE8500:
.LBE8502:
.LBE8504:
.LBE8506:
.LBE8508:
.LBE8510:
.LBE8512:
.LBE8514:
	.cfi_endproc
.LFE7203:
	.size	_ZNSt6thread5_ImplISt12_Bind_simpleIFZNSt13__future_base17_Async_state_implIS1_IFZN5Paths18runMakePathsBufferERSt6vectorI4PathSaIS6_EEN14TimeSeparation8PositionEEUlvE_vEEvEC1EOSE_EUlvE_vEEED0Ev, .-_ZNSt6thread5_ImplISt12_Bind_simpleIFZNSt13__future_base17_Async_state_implIS1_IFZN5Paths18runMakePathsBufferERSt6vectorI4PathSaIS6_EEN14TimeSeparation8PositionEEUlvE_vEEvEC1EOSE_EUlvE_vEEED0Ev
	.section	.text._ZN4PathD2Ev,"axG",@progbits,_ZN4PathD5Ev,comdat
	.align 2
	.p2align 4,,15
	.weak	_ZN4PathD2Ev
	.type	_ZN4PathD2Ev, @function
_ZN4PathD2Ev:
.LFB5295:
	.file 20 "Path.h"
	.loc 20 70 0
	.cfi_startproc
.LVL440:
	pushq	%r14
	.cfi_def_cfa_offset 16
	.cfi_offset 14, -16
	movq	%rdi, %r14
	pushq	%r13
	.cfi_def_cfa_offset 24
	.cfi_offset 13, -24
	pushq	%r12
	.cfi_def_cfa_offset 32
	.cfi_offset 12, -32
	pushq	%rbp
	.cfi_def_cfa_offset 40
	.cfi_offset 6, -40
	pushq	%rbx
	.cfi_def_cfa_offset 48
	.cfi_offset 3, -48
	subq	$16, %rsp
	.cfi_def_cfa_offset 64
.LBB8571:
.LBB8572:
	.file 21 "/usr/include/c++/4.8/bits/stl_vector.h"
	.loc 21 416 0
	movq	16(%rdi), %r12
	movq	8(%rdi), %rbp
.LVL441:
.LBB8573:
.LBB8574:
.LBB8575:
.LBB8576:
.LBB8577:
	.file 22 "/usr/include/c++/4.8/bits/stl_construct.h"
	.loc 22 102 0
	cmpq	%rbp, %r12
	je	.L332
	movl	$_ZL28__gthrw___pthread_key_createPjPFvPvE, %eax
	movq	%rbp, %rbx
	leaq	32(%rbp), %r13
	testq	%rax, %rax
	je	.L321
.LVL442:
	.p2align 4,,10
	.p2align 3
.L325:
	movq	%rbx, %rax
	subq	%rbp, %rax
.LBB8578:
.LBB8579:
.LBB8580:
.LBB8581:
.LBB8582:
.LBB8583:
.LBB8584:
.LBB8585:
	.loc 17 293 0
	movq	0(%r13,%rax), %rax
.LBE8585:
.LBE8584:
.LBE8583:
.LBE8582:
	.loc 17 539 0
	leaq	-24(%rax), %rdi
.LVL443:
.LBB8589:
.LBB8590:
	.loc 17 240 0
	cmpq	$_ZNSs4_Rep20_S_empty_rep_storageE, %rdi
	jne	.L340
.LVL444:
.L323:
.LBE8590:
.LBE8589:
.LBE8581:
.LBE8580:
.LBE8579:
.LBE8578:
	.loc 22 102 0
	addq	$40, %rbx
.LVL445:
	cmpq	%rbx, %r12
	jne	.L325
.LVL446:
.L320:
	movq	8(%r14), %rdi
.LVL447:
.L316:
.LBE8577:
.LBE8576:
.LBE8575:
.LBE8574:
.LBE8573:
.LBB8631:
.LBB8632:
.LBB8633:
	.loc 21 173 0
	testq	%rdi, %rdi
	je	.L326
.LVL448:
.LBB8634:
.LBB8635:
	.loc 4 110 0
	call	_ZdlPv
.LVL449:
.L326:
.LBE8635:
.LBE8634:
.LBE8633:
.LBE8632:
.LBE8631:
.LBE8572:
.LBE8571:
.LBB8642:
.LBB8643:
.LBB8644:
.LBB8645:
.LBB8646:
.LBB8647:
	.loc 17 293 0
	movq	(%r14), %rax
.LBE8647:
.LBE8646:
.LBE8645:
.LBE8644:
	.loc 17 539 0
	leaq	-24(%rax), %rdi
.LVL450:
.LBB8648:
.LBB8649:
	.loc 17 240 0
	cmpq	$_ZNSs4_Rep20_S_empty_rep_storageE, %rdi
	jne	.L341
.LVL451:
.L315:
.LBE8649:
.LBE8648:
.LBE8643:
.LBE8642:
	.loc 20 70 0
	addq	$16, %rsp
	.cfi_remember_state
	.cfi_def_cfa_offset 48
	popq	%rbx
	.cfi_def_cfa_offset 40
	popq	%rbp
	.cfi_def_cfa_offset 32
.LVL452:
	popq	%r12
	.cfi_def_cfa_offset 24
.LVL453:
	popq	%r13
	.cfi_def_cfa_offset 16
	popq	%r14
	.cfi_def_cfa_offset 8
.LVL454:
	ret
.LVL455:
.L332:
	.cfi_restore_state
.LBB8666:
.LBB8639:
.LBB8636:
.LBB8628:
.LBB8625:
.LBB8622:
.LBB8619:
	.loc 22 102 0
	movq	%r12, %rdi
.LVL456:
	jmp	.L316
.LVL457:
.L340:
.LBB8616:
.LBB8613:
.LBB8610:
.LBB8607:
.LBB8603:
.LBB8600:
.LBB8591:
.LBB8592:
.LBB8593:
	.loc 19 49 0
	movl	$-1, %ecx
	lock xaddl	%ecx, -8(%rax)
.LBE8593:
.LBE8592:
.LBE8591:
	.loc 17 245 0
	testl	%ecx, %ecx
	jg	.L323
	.loc 17 249 0
	leaq	15(%rsp), %rsi
.LVL458:
	call	_ZNSs4_Rep10_M_destroyERKSaIcE
.LVL459:
	jmp	.L323
.LVL460:
.L341:
.LBE8600:
.LBE8603:
.LBE8607:
.LBE8610:
.LBE8613:
.LBE8616:
.LBE8619:
.LBE8622:
.LBE8625:
.LBE8628:
.LBE8636:
.LBE8639:
.LBE8666:
.LBB8667:
.LBB8664:
.LBB8662:
.LBB8660:
.LBB8650:
.LBB8651:
	.loc 19 81 0
	movl	$_ZL28__gthrw___pthread_key_createPjPFvPvE, %ecx
.LBE8651:
.LBE8650:
	.loc 17 246 0
	leaq	16(%rdi), %rdx
.LVL461:
.LBB8658:
.LBB8656:
	.loc 19 81 0
	testq	%rcx, %rcx
	je	.L329
.LVL462:
.LBB8652:
.LBB8653:
	.loc 19 49 0
	movl	$-1, %eax
	lock xaddl	%eax, (%rdx)
.LVL463:
.L330:
.LBE8653:
.LBE8652:
.LBE8656:
.LBE8658:
	.loc 17 245 0
	testl	%eax, %eax
	jg	.L315
	.loc 17 249 0
	leaq	15(%rsp), %rsi
.LVL464:
	call	_ZNSs4_Rep10_M_destroyERKSaIcE
.LVL465:
	jmp	.L315
.LVL466:
.L321:
	movq	%rbx, %rax
	subq	%rbp, %rax
.LBE8660:
.LBE8662:
.LBE8664:
.LBE8667:
.LBB8668:
.LBB8640:
.LBB8637:
.LBB8629:
.LBB8626:
.LBB8623:
.LBB8620:
.LBB8617:
.LBB8614:
.LBB8611:
.LBB8608:
.LBB8604:
.LBB8588:
.LBB8587:
.LBB8586:
	.loc 17 293 0
	movq	0(%r13,%rax), %rax
.LBE8586:
.LBE8587:
.LBE8588:
.LBE8604:
	.loc 17 539 0
	leaq	-24(%rax), %rdi
.LVL467:
.LBB8605:
.LBB8601:
	.loc 17 240 0
	cmpq	$_ZNSs4_Rep20_S_empty_rep_storageE, %rdi
	jne	.L342
.LVL468:
.L319:
.LBE8601:
.LBE8605:
.LBE8608:
.LBE8611:
.LBE8614:
.LBE8617:
	.loc 22 102 0
	addq	$40, %rbx
.LVL469:
	cmpq	%rbx, %r12
	jne	.L321
	jmp	.L320
.LVL470:
.L329:
.LBE8620:
.LBE8623:
.LBE8626:
.LBE8629:
.LBE8637:
.LBE8640:
.LBE8668:
.LBB8669:
.LBB8665:
.LBB8663:
.LBB8661:
.LBB8659:
.LBB8657:
.LBB8654:
.LBB8655:
	.loc 19 67 0
	movl	-8(%rax), %edx
.LVL471:
	.loc 19 68 0
	leal	-1(%rdx), %ecx
	movl	%ecx, -8(%rax)
.LBE8655:
.LBE8654:
	.loc 19 84 0
	movl	%edx, %eax
	jmp	.L330
.LVL472:
.L342:
.LBE8657:
.LBE8659:
.LBE8661:
.LBE8663:
.LBE8665:
.LBE8669:
.LBB8670:
.LBB8641:
.LBB8638:
.LBB8630:
.LBB8627:
.LBB8624:
.LBB8621:
.LBB8618:
.LBB8615:
.LBB8612:
.LBB8609:
.LBB8606:
.LBB8602:
.LBB8598:
.LBB8594:
.LBB8595:
	.loc 19 67 0
	movl	-8(%rax), %edx
.LVL473:
	.loc 19 68 0
	leal	-1(%rdx), %ecx
.LBE8595:
.LBE8594:
.LBE8598:
	.loc 17 245 0
	testl	%edx, %edx
.LBB8599:
.LBB8597:
.LBB8596:
	.loc 19 68 0
	movl	%ecx, -8(%rax)
.LBE8596:
.LBE8597:
.LBE8599:
	.loc 17 245 0
	jg	.L319
	.loc 17 249 0
	leaq	15(%rsp), %rsi
.LVL474:
	call	_ZNSs4_Rep10_M_destroyERKSaIcE
.LVL475:
	jmp	.L319
.LBE8602:
.LBE8606:
.LBE8609:
.LBE8612:
.LBE8615:
.LBE8618:
.LBE8621:
.LBE8624:
.LBE8627:
.LBE8630:
.LBE8638:
.LBE8641:
.LBE8670:
	.cfi_endproc
.LFE5295:
	.size	_ZN4PathD2Ev, .-_ZN4PathD2Ev
	.weak	_ZN4PathD1Ev
	.set	_ZN4PathD1Ev,_ZN4PathD2Ev
	.section	.text._ZNSt4pairISs4PathED2Ev,"axG",@progbits,_ZNSt4pairISs4PathED5Ev,comdat
	.align 2
	.p2align 4,,15
	.weak	_ZNSt4pairISs4PathED2Ev
	.type	_ZNSt4pairISs4PathED2Ev, @function
_ZNSt4pairISs4PathED2Ev:
.LFB5314:
	.file 23 "/usr/include/c++/4.8/bits/stl_pair.h"
	.loc 23 96 0
	.cfi_startproc
.LVL476:
	pushq	%r14
	.cfi_def_cfa_offset 16
	.cfi_offset 14, -16
	movq	%rdi, %r14
	pushq	%r13
	.cfi_def_cfa_offset 24
	.cfi_offset 13, -24
	pushq	%r12
	.cfi_def_cfa_offset 32
	.cfi_offset 12, -32
	pushq	%rbp
	.cfi_def_cfa_offset 40
	.cfi_offset 6, -40
	pushq	%rbx
	.cfi_def_cfa_offset 48
	.cfi_offset 3, -48
	subq	$16, %rsp
	.cfi_def_cfa_offset 64
.LBB8746:
.LBB8747:
.LBB8748:
	.loc 21 416 0
	movq	24(%rdi), %r12
	movq	16(%rdi), %rbp
.LVL477:
.LBB8749:
.LBB8750:
.LBB8751:
.LBB8752:
.LBB8753:
	.loc 22 102 0
	cmpq	%rbp, %r12
	je	.L365
	movl	$_ZL28__gthrw___pthread_key_createPjPFvPvE, %eax
	movq	%rbp, %rbx
	leaq	32(%rbp), %r13
	testq	%rax, %rax
	je	.L349
.LVL478:
	.p2align 4,,10
	.p2align 3
.L353:
	movq	%rbx, %rax
	subq	%rbp, %rax
.LBB8754:
.LBB8755:
.LBB8756:
.LBB8757:
.LBB8758:
.LBB8759:
.LBB8760:
.LBB8761:
	.loc 17 293 0
	movq	0(%r13,%rax), %rax
.LBE8761:
.LBE8760:
.LBE8759:
.LBE8758:
	.loc 17 539 0
	leaq	-24(%rax), %rdi
.LVL479:
.LBB8765:
.LBB8766:
	.loc 17 240 0
	cmpq	$_ZNSs4_Rep20_S_empty_rep_storageE, %rdi
	jne	.L373
.LVL480:
.L351:
.LBE8766:
.LBE8765:
.LBE8757:
.LBE8756:
.LBE8755:
.LBE8754:
	.loc 22 102 0
	addq	$40, %rbx
.LVL481:
	cmpq	%rbx, %r12
	jne	.L353
.LVL482:
.L348:
	movq	16(%r14), %rdi
.LVL483:
.L344:
.LBE8753:
.LBE8752:
.LBE8751:
.LBE8750:
.LBE8749:
.LBB8807:
.LBB8808:
.LBB8809:
	.loc 21 173 0
	testq	%rdi, %rdi
	je	.L354
.LVL484:
.LBB8810:
.LBB8811:
	.loc 4 110 0
	call	_ZdlPv
.LVL485:
.L354:
.LBE8811:
.LBE8810:
.LBE8809:
.LBE8808:
.LBE8807:
.LBE8748:
.LBE8747:
.LBB8818:
.LBB8819:
.LBB8820:
.LBB8821:
.LBB8822:
.LBB8823:
	.loc 17 293 0
	movq	8(%r14), %rax
.LBE8823:
.LBE8822:
.LBE8821:
.LBE8820:
	.loc 17 539 0
	leaq	-24(%rax), %rdi
.LVL486:
.LBB8824:
.LBB8825:
	.loc 17 240 0
	cmpq	$_ZNSs4_Rep20_S_empty_rep_storageE, %rdi
	jne	.L374
.LVL487:
.L356:
.LBE8825:
.LBE8824:
.LBE8819:
.LBE8818:
.LBE8746:
.LBB8847:
.LBB8848:
.LBB8849:
.LBB8850:
.LBB8851:
.LBB8852:
	.loc 17 293 0
	movq	(%r14), %rax
.LBE8852:
.LBE8851:
.LBE8850:
.LBE8849:
	.loc 17 539 0
	leaq	-24(%rax), %rdi
.LVL488:
.LBB8853:
.LBB8854:
	.loc 17 240 0
	cmpq	$_ZNSs4_Rep20_S_empty_rep_storageE, %rdi
	jne	.L375
.LVL489:
.L343:
.LBE8854:
.LBE8853:
.LBE8848:
.LBE8847:
	.loc 23 96 0
	addq	$16, %rsp
	.cfi_remember_state
	.cfi_def_cfa_offset 48
	popq	%rbx
	.cfi_def_cfa_offset 40
	popq	%rbp
	.cfi_def_cfa_offset 32
.LVL490:
	popq	%r12
	.cfi_def_cfa_offset 24
.LVL491:
	popq	%r13
	.cfi_def_cfa_offset 16
	popq	%r14
	.cfi_def_cfa_offset 8
.LVL492:
	ret
.LVL493:
.L365:
	.cfi_restore_state
.LBB8871:
.LBB8842:
.LBB8815:
.LBB8812:
.LBB8804:
.LBB8801:
.LBB8798:
.LBB8795:
	.loc 22 102 0
	movq	%r12, %rdi
.LVL494:
	jmp	.L344
.LVL495:
.L373:
.LBB8792:
.LBB8789:
.LBB8786:
.LBB8783:
.LBB8779:
.LBB8776:
.LBB8767:
.LBB8768:
.LBB8769:
	.loc 19 49 0
	movl	$-1, %ecx
	lock xaddl	%ecx, -8(%rax)
.LBE8769:
.LBE8768:
.LBE8767:
	.loc 17 245 0
	testl	%ecx, %ecx
	jg	.L351
	.loc 17 249 0
	leaq	15(%rsp), %rsi
.LVL496:
	call	_ZNSs4_Rep10_M_destroyERKSaIcE
.LVL497:
	jmp	.L351
.LVL498:
.L375:
.LBE8776:
.LBE8779:
.LBE8783:
.LBE8786:
.LBE8789:
.LBE8792:
.LBE8795:
.LBE8798:
.LBE8801:
.LBE8804:
.LBE8812:
.LBE8815:
.LBE8842:
.LBE8871:
.LBB8872:
.LBB8869:
.LBB8867:
.LBB8865:
.LBB8855:
.LBB8856:
	.loc 19 81 0
	movl	$_ZL28__gthrw___pthread_key_createPjPFvPvE, %ecx
.LBE8856:
.LBE8855:
	.loc 17 246 0
	leaq	16(%rdi), %rdx
.LVL499:
.LBB8863:
.LBB8861:
	.loc 19 81 0
	testq	%rcx, %rcx
	je	.L362
.LVL500:
.LBB8857:
.LBB8858:
	.loc 19 49 0
	movl	$-1, %eax
	lock xaddl	%eax, (%rdx)
.LVL501:
.L363:
.LBE8858:
.LBE8857:
.LBE8861:
.LBE8863:
	.loc 17 245 0
	testl	%eax, %eax
	jg	.L343
	.loc 17 249 0
	leaq	15(%rsp), %rsi
.LVL502:
	call	_ZNSs4_Rep10_M_destroyERKSaIcE
.LVL503:
	jmp	.L343
.LVL504:
.L374:
.LBE8865:
.LBE8867:
.LBE8869:
.LBE8872:
.LBB8873:
.LBB8843:
.LBB8840:
.LBB8838:
.LBB8836:
.LBB8826:
.LBB8827:
	.loc 19 81 0
	movl	$_ZL28__gthrw___pthread_key_createPjPFvPvE, %ecx
.LBE8827:
.LBE8826:
	.loc 17 246 0
	leaq	16(%rdi), %rdx
.LVL505:
.LBB8834:
.LBB8832:
	.loc 19 81 0
	testq	%rcx, %rcx
	je	.L357
.LVL506:
.LBB8828:
.LBB8829:
	.loc 19 49 0
	movl	$-1, %eax
	lock xaddl	%eax, (%rdx)
.LVL507:
.L358:
.LBE8829:
.LBE8828:
.LBE8832:
.LBE8834:
	.loc 17 245 0
	testl	%eax, %eax
	jg	.L356
	.loc 17 249 0
	leaq	15(%rsp), %rsi
.LVL508:
	call	_ZNSs4_Rep10_M_destroyERKSaIcE
.LVL509:
	jmp	.L356
.LVL510:
.L349:
	movq	%rbx, %rax
	subq	%rbp, %rax
.LBE8836:
.LBE8838:
.LBE8840:
.LBE8843:
.LBB8844:
.LBB8816:
.LBB8813:
.LBB8805:
.LBB8802:
.LBB8799:
.LBB8796:
.LBB8793:
.LBB8790:
.LBB8787:
.LBB8784:
.LBB8780:
.LBB8764:
.LBB8763:
.LBB8762:
	.loc 17 293 0
	movq	0(%r13,%rax), %rax
.LBE8762:
.LBE8763:
.LBE8764:
.LBE8780:
	.loc 17 539 0
	leaq	-24(%rax), %rdi
.LVL511:
.LBB8781:
.LBB8777:
	.loc 17 240 0
	cmpq	$_ZNSs4_Rep20_S_empty_rep_storageE, %rdi
	jne	.L376
.LVL512:
.L347:
.LBE8777:
.LBE8781:
.LBE8784:
.LBE8787:
.LBE8790:
.LBE8793:
	.loc 22 102 0
	addq	$40, %rbx
.LVL513:
	cmpq	%rbx, %r12
	jne	.L349
	jmp	.L348
.LVL514:
.L362:
.LBE8796:
.LBE8799:
.LBE8802:
.LBE8805:
.LBE8813:
.LBE8816:
.LBE8844:
.LBE8873:
.LBB8874:
.LBB8870:
.LBB8868:
.LBB8866:
.LBB8864:
.LBB8862:
.LBB8859:
.LBB8860:
	.loc 19 67 0
	movl	-8(%rax), %edx
.LVL515:
	.loc 19 68 0
	leal	-1(%rdx), %ecx
	movl	%ecx, -8(%rax)
.LBE8860:
.LBE8859:
	.loc 19 84 0
	movl	%edx, %eax
	jmp	.L363
.LVL516:
.L357:
.LBE8862:
.LBE8864:
.LBE8866:
.LBE8868:
.LBE8870:
.LBE8874:
.LBB8875:
.LBB8845:
.LBB8841:
.LBB8839:
.LBB8837:
.LBB8835:
.LBB8833:
.LBB8830:
.LBB8831:
	.loc 19 67 0
	movl	-8(%rax), %edx
.LVL517:
	.loc 19 68 0
	leal	-1(%rdx), %ecx
	movl	%ecx, -8(%rax)
.LBE8831:
.LBE8830:
	.loc 19 84 0
	movl	%edx, %eax
	jmp	.L358
.LVL518:
.L376:
.LBE8833:
.LBE8835:
.LBE8837:
.LBE8839:
.LBE8841:
.LBE8845:
.LBB8846:
.LBB8817:
.LBB8814:
.LBB8806:
.LBB8803:
.LBB8800:
.LBB8797:
.LBB8794:
.LBB8791:
.LBB8788:
.LBB8785:
.LBB8782:
.LBB8778:
.LBB8774:
.LBB8770:
.LBB8771:
	.loc 19 67 0
	movl	-8(%rax), %edx
.LVL519:
	.loc 19 68 0
	leal	-1(%rdx), %ecx
.LBE8771:
.LBE8770:
.LBE8774:
	.loc 17 245 0
	testl	%edx, %edx
.LBB8775:
.LBB8773:
.LBB8772:
	.loc 19 68 0
	movl	%ecx, -8(%rax)
.LBE8772:
.LBE8773:
.LBE8775:
	.loc 17 245 0
	jg	.L347
	.loc 17 249 0
	leaq	15(%rsp), %rsi
.LVL520:
	call	_ZNSs4_Rep10_M_destroyERKSaIcE
.LVL521:
	jmp	.L347
.LBE8778:
.LBE8782:
.LBE8785:
.LBE8788:
.LBE8791:
.LBE8794:
.LBE8797:
.LBE8800:
.LBE8803:
.LBE8806:
.LBE8814:
.LBE8817:
.LBE8846:
.LBE8875:
	.cfi_endproc
.LFE5314:
	.size	_ZNSt4pairISs4PathED2Ev, .-_ZNSt4pairISs4PathED2Ev
	.weak	_ZNSt4pairISs4PathED1Ev
	.set	_ZNSt4pairISs4PathED1Ev,_ZNSt4pairISs4PathED2Ev
	.text
	.align 2
	.p2align 4,,15
	.globl	_ZN5Paths8drawPathER9PathPointl
	.type	_ZN5Paths8drawPathER9PathPointl, @function
_ZN5Paths8drawPathER9PathPointl:
.LFB5352:
	.file 24 "Paths.cpp"
	.loc 24 69 0
	.cfi_startproc
.LVL522:
	pushq	%r13
	.cfi_def_cfa_offset 16
	.cfi_offset 13, -16
	pushq	%r12
	.cfi_def_cfa_offset 24
	.cfi_offset 12, -24
	pushq	%rbp
	.cfi_def_cfa_offset 32
	.cfi_offset 6, -32
	pushq	%rbx
	.cfi_def_cfa_offset 40
	.cfi_offset 3, -40
	movq	%rsi, %rbx
	subq	$40, %rsp
	.cfi_def_cfa_offset 80
.LBB8899:
	.loc 24 84 0
	subq	24(%rsi), %rdx
.LVL523:
	movl	120(%rdi), %eax
	movsd	.LC1(%rip), %xmm4
	cvtsi2sdq	%rdx, %xmm0
.LBB8900:
.LBB8901:
.LBB8902:
.LBB8903:
.LBB8904:
.LBB8905:
	.loc 17 293 0
	movq	32(%rsi), %rdx
.LBE8905:
.LBE8904:
.LBE8903:
.LBE8902:
.LBE8901:
.LBE8900:
	.loc 24 84 0
	cvtsi2sdq	%rax, %xmm1
.LBB8935:
	.loc 24 87 0
	cmpq	$3, -24(%rdx)
.LBE8935:
	.loc 24 84 0
	divsd	%xmm1, %xmm0
	subsd	%xmm0, %xmm4
.LVL524:
.LBB8936:
	.loc 24 87 0
	je	.L386
	xorpd	%xmm5, %xmm5
	movapd	%xmm5, %xmm7
	movapd	%xmm5, %xmm6
.LVL525:
.L380:
.LBE8936:
	.loc 24 114 0
	movapd	%xmm4, %xmm3
	movapd	%xmm5, %xmm2
	movapd	%xmm7, %xmm1
	movsd	%xmm4, 24(%rsp)
	mulsd	.LC3(%rip), %xmm3
	movapd	%xmm6, %xmm0
	movsd	%xmm5, 16(%rsp)
	movsd	%xmm7, 8(%rsp)
	movsd	%xmm6, (%rsp)
	call	glColor4d
.LVL526:
	.loc 24 115 0
	cvtsi2sd	16(%rbx), %xmm2
	movsd	8(%rbx), %xmm1
	movsd	(%rbx), %xmm0
	call	glVertex3d
.LVL527:
	.loc 24 116 0
	movsd	24(%rsp), %xmm4
	movsd	.LC4(%rip), %xmm3
	movsd	16(%rsp), %xmm5
	movsd	8(%rsp), %xmm7
	movsd	(%rsp), %xmm6
	movapd	%xmm5, %xmm2
	mulsd	%xmm4, %xmm3
	movapd	%xmm7, %xmm1
	movapd	%xmm6, %xmm0
	call	glColor4d
.LVL528:
	.loc 24 117 0
	movsd	8(%rbx), %xmm1
	movsd	(%rbx), %xmm0
.LBE8899:
	.loc 24 118 0
	addq	$40, %rsp
	.cfi_remember_state
	.cfi_def_cfa_offset 40
.LVL529:
	popq	%rbx
	.cfi_def_cfa_offset 32
.LVL530:
	popq	%rbp
	.cfi_def_cfa_offset 24
	popq	%r12
	.cfi_def_cfa_offset 16
	popq	%r13
	.cfi_def_cfa_offset 8
.LBB8938:
	.loc 24 117 0
	xorpd	%xmm2, %xmm2
	jmp	glVertex3d
.LVL531:
	.p2align 4,,10
	.p2align 3
.L386:
	.cfi_restore_state
.LBB8937:
.LBB8906:
.LBB8907:
.LBB8908:
.LBB8909:
	.loc 17 316 0
	movl	-8(%rdx), %edi
.LVL532:
	testl	%edi, %edi
	js	.L381
.LBE8909:
.LBE8908:
.LBE8907:
	.loc 24 93 0
	leaq	32(%rsi), %rbp
.LVL533:
	movsd	%xmm4, (%rsp)
.LBB8914:
.LBB8911:
.LBB8910:
	.loc 17 317 0
	movq	%rbp, %rdi
	call	_ZNSs12_M_leak_hardEv
.LVL534:
.LBE8910:
.LBE8911:
.LBB8912:
.LBB8913:
	.loc 17 293 0
	movq	32(%rbx), %rdx
.LBE8913:
.LBE8912:
.LBE8914:
.LBB8915:
.LBB8916:
.LBB8917:
	.loc 17 316 0
	movsd	(%rsp), %xmm4
.LBE8917:
.LBE8916:
.LBE8915:
	.loc 24 93 0
	movsbl	(%rdx), %r12d
.LBB8924:
.LBB8920:
.LBB8918:
	.loc 17 316 0
	movl	-8(%rdx), %esi
.LBE8918:
.LBE8920:
.LBE8924:
	.loc 24 93 0
	subl	$65, %r12d
.LVL535:
.LBB8925:
.LBB8921:
.LBB8919:
	.loc 17 316 0
	testl	%esi, %esi
	js	.L382
	.loc 17 317 0
	movq	%rbp, %rdi
	call	_ZNSs12_M_leak_hardEv
.LVL536:
.LBE8919:
.LBE8921:
.LBB8922:
.LBB8923:
	.loc 17 293 0
	movq	32(%rbx), %rdx
.LBE8923:
.LBE8922:
.LBE8925:
.LBB8926:
.LBB8927:
.LBB8928:
	.loc 17 316 0
	movsd	(%rsp), %xmm4
.LBE8928:
.LBE8927:
.LBE8926:
	.loc 24 94 0
	movsbl	1(%rdx), %r13d
.LBB8933:
.LBB8931:
.LBB8929:
	.loc 17 316 0
	movl	-8(%rdx), %ecx
.LBE8929:
.LBE8931:
.LBE8933:
	.loc 24 94 0
	subl	$65, %r13d
.LVL537:
.LBB8934:
.LBB8932:
.LBB8930:
	.loc 17 316 0
	testl	%ecx, %ecx
	js	.L383
	.loc 17 317 0
	movq	%rbp, %rdi
	call	_ZNSs12_M_leak_hardEv
.LVL538:
	movq	32(%rbx), %rdx
	movsd	(%rsp), %xmm4
.LVL539:
.L383:
.LBE8930:
.LBE8932:
.LBE8934:
	.loc 24 95 0
	movsbl	2(%rdx), %ecx
	.loc 24 96 0
	movl	%r13d, %eax
	movl	$29, %edx
.LVL540:
	imull	%edx, %eax
	movl	$-2104705089, %edi
	movsd	.LC2(%rip), %xmm0
	.loc 24 95 0
	subl	$65, %ecx
.LVL541:
	.loc 24 96 0
	imull	$841, %ecx, %ecx
.LVL542:
	addl	%eax, %ecx
	addl	%r12d, %ecx
.LVL543:
	movl	%ecx, %eax
	movl	%ecx, %esi
	imull	%edi
	leal	(%rdx,%rcx), %eax
	movl	%ecx, %edx
	sarl	$31, %edx
	sarl	$7, %eax
	subl	%edx, %eax
	imull	$251, %eax, %eax
	subl	%eax, %esi
	cvtsi2sd	%esi, %xmm6
	movl	%ecx, %esi
	imull	%ecx, %esi
	movl	%esi, %eax
	imull	%edi
	imull	%esi, %ecx
.LVL544:
	leal	(%rdx,%rsi), %eax
	movl	%esi, %edx
	sarl	$31, %edx
	sarl	$7, %eax
	subl	%edx, %eax
	movl	%esi, %edx
	divsd	%xmm0, %xmm6
	imull	$251, %eax, %eax
	subl	%eax, %edx
	movl	%ecx, %eax
	cvtsi2sd	%edx, %xmm7
	imull	%edi
	movl	%ecx, %eax
	sarl	$31, %eax
	addl	%ecx, %edx
	sarl	$7, %edx
	subl	%eax, %edx
	imull	$251, %edx, %edx
	subl	%edx, %ecx
	cvtsi2sd	%ecx, %xmm5
	divsd	%xmm0, %xmm7
	divsd	%xmm0, %xmm5
	jmp	.L380
.LVL545:
	.p2align 4,,10
	.p2align 3
.L381:
	.loc 24 93 0
	movsbl	(%rdx), %r12d
	subl	$65, %r12d
.LVL546:
.L382:
	.loc 24 94 0
	movsbl	1(%rdx), %r13d
	subl	$65, %r13d
.LVL547:
	jmp	.L383
.LBE8906:
.LBE8937:
.LBE8938:
	.cfi_endproc
.LFE5352:
	.size	_ZN5Paths8drawPathER9PathPointl, .-_ZN5Paths8drawPathER9PathPointl
	.align 2
	.p2align 4,,15
	.globl	_ZN5Paths11getNowPointER9PathPointS1_l
	.type	_ZN5Paths11getNowPointER9PathPointS1_l, @function
_ZN5Paths11getNowPointER9PathPointS1_l:
.LFB5353:
	.loc 24 120 0
	.cfi_startproc
	.cfi_personality 0x3,__gxx_personality_v0
	.cfi_lsda 0x3,.LLSDA5353
.LVL548:
	pushq	%r13
	.cfi_def_cfa_offset 16
	.cfi_offset 13, -16
.LBB8980:
	.loc 24 121 0
	leaq	32(%rdx), %rsi
.LVL549:
.LBE8980:
	.loc 24 120 0
	movq	%r8, %r13
	pushq	%r12
	.cfi_def_cfa_offset 24
	.cfi_offset 12, -24
	movq	%rcx, %r12
	pushq	%rbp
	.cfi_def_cfa_offset 32
	.cfi_offset 6, -32
	movq	%rdx, %rbp
	pushq	%rbx
	.cfi_def_cfa_offset 40
	.cfi_offset 3, -40
	movq	%rdi, %rbx
	subq	$40, %rsp
	.cfi_def_cfa_offset 80
.LBB9022:
	.loc 24 121 0
	leaq	16(%rsp), %rdi
.LVL550:
.LEHB17:
	call	_ZNSsC1ERKSs
.LEHE17:
.LVL551:
.LBB8981:
.LBB8982:
	.loc 20 38 0
	leaq	32(%rbx), %rdi
.LVL552:
.LBB8983:
.LBB8984:
	.loc 17 547 0
	leaq	16(%rsp), %rsi
.LVL553:
.LBE8984:
.LBE8983:
.LBB8986:
.LBB8987:
.LBB8988:
	.loc 17 275 0
	movq	$_ZNSs4_Rep20_S_empty_rep_storageE+24, 32(%rbx)
.LVL554:
.LBE8988:
.LBE8987:
.LBE8986:
	.loc 20 34 0
	movq	$0, (%rbx)
	.loc 20 35 0
	movq	$0, 8(%rbx)
	.loc 20 36 0
	movl	$0, 16(%rbx)
	.loc 20 37 0
	movq	$0, 24(%rbx)
.LVL555:
.LEHB18:
.LBB8989:
.LBB8985:
	.loc 17 547 0
	call	_ZNSs6assignERKSs
.LEHE18:
.LVL556:
.LBE8985:
.LBE8989:
.LBE8982:
.LBE8981:
.LBB8993:
.LBB8994:
.LBB8995:
.LBB8996:
.LBB8997:
.LBB8998:
	.loc 17 293 0
	movq	16(%rsp), %rax
.LBE8998:
.LBE8997:
.LBE8996:
.LBE8995:
	.loc 17 539 0
	leaq	-24(%rax), %rdi
.LVL557:
.LBB8999:
.LBB9000:
	.loc 17 240 0
	cmpq	$_ZNSs4_Rep20_S_empty_rep_storageE, %rdi
	jne	.L398
.LVL558:
.L391:
.LBE9000:
.LBE8999:
.LBE8994:
.LBE8993:
	.loc 24 122 0
	movq	24(%rbp), %rdx
	movq	%r13, %rax
	movsd	.LC1(%rip), %xmm2
	.loc 24 124 0
	movsd	(%r12), %xmm3
	.loc 24 122 0
	subq	%rdx, %rax
	cvtsi2sdq	%rax, %xmm0
	movq	24(%r12), %rax
	subq	%rdx, %rax
	cvtsi2sdq	%rax, %xmm1
	divsd	%xmm1, %xmm0
	movapd	%xmm2, %xmm1
	subsd	%xmm0, %xmm1
.LVL559:
	.loc 24 124 0
	movsd	0(%rbp), %xmm0
	.loc 24 123 0
	subsd	%xmm1, %xmm2
.LVL560:
	.loc 24 124 0
	mulsd	%xmm1, %xmm0
	mulsd	%xmm2, %xmm3
	addsd	%xmm3, %xmm0
	.loc 24 125 0
	movsd	8(%r12), %xmm3
	mulsd	%xmm2, %xmm3
	.loc 24 124 0
	movsd	%xmm0, (%rbx)
	.loc 24 125 0
	movsd	8(%rbp), %xmm0
	mulsd	%xmm1, %xmm0
	addsd	%xmm3, %xmm0
	movsd	%xmm0, 8(%rbx)
	.loc 24 126 0
	cvtsi2sd	16(%rbp), %xmm0
	mulsd	%xmm1, %xmm0
	cvtsi2sd	16(%r12), %xmm1
.LVL561:
	mulsd	%xmm2, %xmm1
	.loc 24 127 0
	movq	%r13, 24(%rbx)
	.loc 24 126 0
	addsd	%xmm1, %xmm0
	cvttsd2si	%xmm0, %eax
.LVL562:
	movl	%eax, 16(%rbx)
.LBE9022:
	.loc 24 129 0
	addq	$40, %rsp
	.cfi_remember_state
	.cfi_def_cfa_offset 40
	movq	%rbx, %rax
	popq	%rbx
	.cfi_def_cfa_offset 32
.LVL563:
	popq	%rbp
	.cfi_def_cfa_offset 24
.LVL564:
	popq	%r12
	.cfi_def_cfa_offset 16
.LVL565:
	popq	%r13
	.cfi_def_cfa_offset 8
.LVL566:
	ret
.LVL567:
.L398:
	.cfi_restore_state
.LBB9023:
.LBB9017:
.LBB9015:
.LBB9013:
.LBB9011:
.LBB9001:
.LBB9002:
	.loc 19 81 0
	movl	$_ZL28__gthrw___pthread_key_createPjPFvPvE, %ecx
.LBE9002:
.LBE9001:
	.loc 17 246 0
	leaq	16(%rdi), %rdx
.LVL568:
.LBB9009:
.LBB9007:
	.loc 19 81 0
	testq	%rcx, %rcx
	je	.L392
.LVL569:
.LBB9003:
.LBB9004:
	.loc 19 49 0
	orl	$-1, %eax
	lock xaddl	%eax, (%rdx)
.LVL570:
.L393:
.LBE9004:
.LBE9003:
.LBE9007:
.LBE9009:
	.loc 17 245 0
	testl	%eax, %eax
	jg	.L391
	.loc 17 249 0
	leaq	15(%rsp), %rsi
.LVL571:
	call	_ZNSs4_Rep10_M_destroyERKSaIcE
.LVL572:
	jmp	.L391
.LVL573:
.L395:
.LBE9011:
.LBE9013:
.LBE9015:
.LBE9017:
.LBB9018:
.LBB8992:
.LBB8990:
.LBB8991:
	.loc 17 539 0
	movq	32(%rbx), %rdi
	leaq	15(%rsp), %rsi
	movq	%rax, %rbp
.LVL574:
	subq	$24, %rdi
	call	_ZNSs4_Rep10_M_disposeERKSaIcE
.LVL575:
.LBE8991:
.LBE8990:
.LBE8992:
.LBE9018:
.LBB9019:
.LBB9020:
	movq	16(%rsp), %rax
	leaq	14(%rsp), %rsi
	leaq	-24(%rax), %rdi
	call	_ZNSs4_Rep10_M_disposeERKSaIcE
.LVL576:
	movq	%rbp, %rdi
.LEHB19:
	call	_Unwind_Resume
.LEHE19:
.LVL577:
.L392:
.LBE9020:
.LBE9019:
.LBB9021:
.LBB9016:
.LBB9014:
.LBB9012:
.LBB9010:
.LBB9008:
.LBB9005:
.LBB9006:
	.loc 19 67 0
	movl	-8(%rax), %edx
.LVL578:
	.loc 19 68 0
	leal	-1(%rdx), %ecx
	movl	%ecx, -8(%rax)
.LBE9006:
.LBE9005:
	.loc 19 84 0
	movl	%edx, %eax
	jmp	.L393
.LBE9008:
.LBE9010:
.LBE9012:
.LBE9014:
.LBE9016:
.LBE9021:
.LBE9023:
	.cfi_endproc
.LFE5353:
	.section	.gcc_except_table
.LLSDA5353:
	.byte	0xff
	.byte	0xff
	.byte	0x1
	.uleb128 .LLSDACSE5353-.LLSDACSB5353
.LLSDACSB5353:
	.uleb128 .LEHB17-.LFB5353
	.uleb128 .LEHE17-.LEHB17
	.uleb128 0
	.uleb128 0
	.uleb128 .LEHB18-.LFB5353
	.uleb128 .LEHE18-.LEHB18
	.uleb128 .L395-.LFB5353
	.uleb128 0
	.uleb128 .LEHB19-.LFB5353
	.uleb128 .LEHE19-.LEHB19
	.uleb128 0
	.uleb128 0
.LLSDACSE5353:
	.text
	.size	_ZN5Paths11getNowPointER9PathPointS1_l, .-_ZN5Paths11getNowPointER9PathPointS1_l
	.align 2
	.p2align 4,,15
	.globl	_ZN5Paths9resetTimeEv
	.type	_ZN5Paths9resetTimeEv, @function
_ZN5Paths9resetTimeEv:
.LFB5362:
	.loc 24 150 0
	.cfi_startproc
.LVL579:
.LBB9024:
	.loc 24 151 0
	movq	104(%rdi), %rdx
.LVL580:
.LBB9025:
.LBB9026:
.LBB9027:
	.file 25 "/usr/include/c++/4.8/bits/stl_iterator.h"
	.loc 25 726 0
	movq	(%rdx), %rax
.LVL581:
.LBE9027:
.LBE9026:
.LBE9025:
.LBB9028:
.LBB9029:
.LBB9030:
	movq	8(%rdx), %rdx
.LVL582:
.LBE9030:
.LBE9029:
.LBE9028:
	.loc 24 151 0
	cmpq	%rdx, %rax
	je	.L399
	.p2align 4,,10
	.p2align 3
.L403:
.LVL583:
	.loc 24 153 0
	movl	$0, 32(%rax)
	.loc 24 154 0
	movl	$0, 36(%rax)
.LVL584:
.LBB9031:
.LBB9032:
	.loc 25 748 0
	addq	$40, %rax
.LVL585:
.LBE9032:
.LBE9031:
	.loc 24 151 0
	cmpq	%rax, %rdx
	jne	.L403
.LVL586:
.L399:
	rep ret
.LBE9024:
	.cfi_endproc
.LFE5362:
	.size	_ZN5Paths9resetTimeEv, .-_ZN5Paths9resetTimeEv
	.align 2
	.p2align 4,,15
	.globl	_ZN5Paths19updatePastTimeIndexER4Pathl
	.type	_ZN5Paths19updatePastTimeIndexER4Pathl, @function
_ZN5Paths19updatePastTimeIndexER4Pathl:
.LFB5363:
	.loc 24 159 0
	.cfi_startproc
.LVL587:
	.loc 24 160 0
	movq	8(%rsi), %r9
.LVL588:
.LBB9041:
.LBB9042:
.LBB9043:
	.loc 21 646 0
	movq	16(%rsi), %r8
	movabsq	$-3689348814741910323, %rax
	subq	%r9, %r8
	sarq	$3, %r8
	imulq	%rax, %r8
.LBE9043:
.LBE9042:
.LBB9044:
	.loc 24 163 0
	movl	32(%rsi), %eax
	cmpl	%eax, %r8d
.LBE9044:
	.loc 24 160 0
	movl	%r8d, %edi
.LVL589:
.LBB9047:
	.loc 24 163 0
	jle	.L405
.LVL590:
	.loc 24 165 0
	movslq	%eax, %rcx
.LVL591:
.LBB9045:
.LBB9046:
	.loc 21 771 0
	leaq	(%rcx,%rcx,4), %rcx
.LVL592:
	salq	$3, %rcx
.LBE9046:
.LBE9045:
	.loc 24 165 0
	cmpq	24(%r9,%rcx), %rdx
	jl	.L406
	leaq	64(%r9,%rcx), %rcx
	jmp	.L408
.LVL593:
	.p2align 4,,10
	.p2align 3
.L409:
	addq	$40, %rcx
	cmpq	%rdx, -40(%rcx)
	jg	.L406
.LVL594:
.L408:
	.loc 24 163 0
	addl	$1, %eax
.LVL595:
	cmpl	%eax, %edi
	jg	.L409
.LVL596:
.L405:
.LBE9047:
	.loc 24 172 0
	leal	-1(%r8), %eax
.LVL597:
	cltq
.LVL598:
	leaq	(%rax,%rax,4), %rax
.LVL599:
	cmpq	24(%r9,%rax,8), %rdx
	jl	.L404
	.loc 24 174 0
	movl	%r8d, 32(%rsi)
.L404:
	rep ret
.LVL600:
	.p2align 4,,10
	.p2align 3
.L406:
.LBB9048:
	.loc 24 167 0
	movl	%eax, 32(%rsi)
	.loc 24 168 0
	jmp	.L405
.LBE9048:
.LBE9041:
	.cfi_endproc
.LFE5363:
	.size	_ZN5Paths19updatePastTimeIndexER4Pathl, .-_ZN5Paths19updatePastTimeIndexER4Pathl
	.align 2
	.p2align 4,,15
	.globl	_ZN5Paths14updateNowIndexER4Pathl
	.type	_ZN5Paths14updateNowIndexER4Pathl, @function
_ZN5Paths14updateNowIndexER4Pathl:
.LFB5364:
	.loc 24 179 0
	.cfi_startproc
.LVL601:
	.loc 24 180 0
	movq	8(%rsi), %r9
.LVL602:
.LBB9057:
.LBB9058:
.LBB9059:
	.loc 21 646 0
	movq	16(%rsi), %r8
	movabsq	$-3689348814741910323, %rax
	subq	%r9, %r8
	sarq	$3, %r8
	imulq	%rax, %r8
.LBE9059:
.LBE9058:
.LBB9060:
	.loc 24 184 0
	movl	36(%rsi), %eax
	cmpl	%eax, %r8d
.LBE9060:
	.loc 24 180 0
	movl	%r8d, %edi
.LVL603:
.LBB9063:
	.loc 24 184 0
	jle	.L413
.LVL604:
	.loc 24 186 0
	movslq	%eax, %rcx
.LVL605:
.LBB9061:
.LBB9062:
	.loc 21 771 0
	leaq	(%rcx,%rcx,4), %rcx
.LVL606:
	salq	$3, %rcx
.LBE9062:
.LBE9061:
	.loc 24 186 0
	cmpq	24(%r9,%rcx), %rdx
	jl	.L414
	leaq	64(%r9,%rcx), %rcx
	jmp	.L416
.LVL607:
	.p2align 4,,10
	.p2align 3
.L417:
	addq	$40, %rcx
	cmpq	%rdx, -40(%rcx)
	jg	.L414
.LVL608:
.L416:
	.loc 24 184 0
	addl	$1, %eax
.LVL609:
	cmpl	%eax, %edi
	jg	.L417
.LVL610:
.L413:
.LBE9063:
	.loc 24 193 0
	leal	-1(%r8), %eax
.LVL611:
	cltq
.LVL612:
	leaq	(%rax,%rax,4), %rax
.LVL613:
	cmpq	24(%r9,%rax,8), %rdx
	jl	.L412
	.loc 24 195 0
	movl	%r8d, 36(%rsi)
.L412:
	rep ret
.LVL614:
	.p2align 4,,10
	.p2align 3
.L414:
.LBB9064:
	.loc 24 188 0
	movl	%eax, 36(%rsi)
	.loc 24 189 0
	jmp	.L413
.LBE9064:
.LBE9057:
	.cfi_endproc
.LFE5364:
	.size	_ZN5Paths14updateNowIndexER4Pathl, .-_ZN5Paths14updateNowIndexER4Pathl
	.align 2
	.p2align 4,,15
	.globl	_ZN5Paths12drawPathLineER4Pathll
	.type	_ZN5Paths12drawPathLineER4Pathll, @function
_ZN5Paths12drawPathLineER4Pathll:
.LFB5365:
	.loc 24 200 0
	.cfi_startproc
	.cfi_personality 0x3,__gxx_personality_v0
	.cfi_lsda 0x3,.LLSDA5365
.LVL615:
	pushq	%r15
	.cfi_def_cfa_offset 16
	.cfi_offset 15, -16
	movq	%rcx, %r15
	pushq	%r14
	.cfi_def_cfa_offset 24
	.cfi_offset 14, -24
	pushq	%r13
	.cfi_def_cfa_offset 32
	.cfi_offset 13, -32
	movq	%rdi, %r13
.LVL616:
.LBB9156:
	.loc 24 203 0
	movl	$5, %edi
.LVL617:
.LBE9156:
	.loc 24 200 0
	pushq	%r12
	.cfi_def_cfa_offset 40
	.cfi_offset 12, -40
	movq	%rsi, %r12
	pushq	%rbp
	.cfi_def_cfa_offset 48
	.cfi_offset 6, -48
	pushq	%rbx
	.cfi_def_cfa_offset 56
	.cfi_offset 3, -56
	movq	%rdx, %rbx
	subq	$120, %rsp
	.cfi_def_cfa_offset 176
.LBB9287:
.LBB9157:
.LBB9158:
	.loc 21 646 0
	movq	16(%rsi), %rax
	movq	%rax, 40(%rsp)
	movq	8(%rsi), %rax
	subq	%rax, 40(%rsp)
	movabsq	$-3689348814741910323, %rax
	sarq	$3, 40(%rsp)
	imulq	40(%rsp), %rax
	movq	%rax, 40(%rsp)
.LVL618:
.LEHB20:
.LBE9158:
.LBE9157:
	.loc 24 203 0
	call	glBegin
.LVL619:
.LBB9159:
	.loc 24 205 0
	movslq	32(%r12), %rax
	testl	%eax, %eax
	je	.L443
	.loc 24 205 0 is_stmt 0 discriminator 1
	cmpl	%eax, 40(%rsp)
	je	.L444
.LVL620:
.LBE9159:
.LBE9287:
	.loc 24 201 0 is_stmt 1
	movq	8(%r12), %rdx
.LVL621:
.LBB9288:
.LBB9198:
.LBB9160:
.LBB9161:
.LBB9162:
	.loc 21 771 0
	leaq	(%rax,%rax,4), %rax
.LBE9162:
.LBE9161:
	.loc 24 208 0
	leaq	64(%rsp), %rdi
	movq	%r13, %rsi
	movq	%rbx, %r8
.LBB9164:
.LBB9163:
	.loc 21 771 0
	salq	$3, %rax
.LVL622:
	leaq	(%rdx,%rax), %rcx
.LBE9163:
.LBE9164:
.LBB9165:
.LBB9166:
	leaq	-40(%rdx,%rax), %rdx
.LBE9166:
.LBE9165:
	.loc 24 208 0
	call	_ZN5Paths11getNowPointER9PathPointS1_l
.LEHE20:
.LVL623:
	.loc 24 209 0
	leaq	64(%rsp), %rsi
	movq	%r15, %rdx
	movq	%r13, %rdi
.LEHB21:
	call	_ZN5Paths8drawPathER9PathPointl
.LEHE21:
.LVL624:
.LBB9167:
.LBB9168:
.LBB9169:
.LBB9170:
.LBB9171:
.LBB9172:
.LBB9173:
	.loc 17 293 0
	movq	96(%rsp), %rax
.LBE9173:
.LBE9172:
.LBE9171:
.LBE9170:
	.loc 17 539 0
	leaq	-24(%rax), %rdi
.LVL625:
.LBB9174:
.LBB9175:
	.loc 17 240 0
	cmpq	$_ZNSs4_Rep20_S_empty_rep_storageE, %rdi
	jne	.L454
.LVL626:
.L423:
	movl	32(%r12), %ebx
.LVL627:
.LBE9175:
.LBE9174:
.LBE9169:
.LBE9168:
.LBE9167:
.LBE9160:
	jmp	.L421
.LVL628:
	.p2align 4,,10
	.p2align 3
.L443:
	xorl	%ebx, %ebx
.LVL629:
.L421:
.LBE9198:
.LBB9199:
	.loc 24 213 0
	movslq	36(%r12), %rax
	cmpl	%ebx, %eax
	jle	.L427
	movslq	%ebx, %rax
	leaq	(%rax,%rax,4), %rbp
	salq	$3, %rbp
	jmp	.L434
.LVL630:
	.p2align 4,,10
	.p2align 3
.L445:
.LBB9200:
.LBB9201:
.LBB9202:
	.loc 24 87 0
	xorpd	%xmm6, %xmm6
	movapd	%xmm6, %xmm5
	movapd	%xmm6, %xmm4
.LVL631:
.L430:
.LBE9202:
	.loc 24 114 0
	movsd	.LC3(%rip), %xmm3
	movapd	%xmm6, %xmm2
	movapd	%xmm5, %xmm1
	movsd	%xmm6, 32(%rsp)
	mulsd	8(%rsp), %xmm3
	movapd	%xmm4, %xmm0
	movsd	%xmm5, 24(%rsp)
.LBE9201:
.LBE9200:
	.loc 24 213 0
	addl	$1, %ebx
.LVL632:
	addq	$40, %rbp
.LBB9235:
.LBB9233:
	.loc 24 114 0
	movsd	%xmm4, 16(%rsp)
.LEHB22:
	call	glColor4d
.LVL633:
	.loc 24 115 0
	cvtsi2sd	16(%r14), %xmm2
	movsd	8(%r14), %xmm1
	movsd	(%r14), %xmm0
	call	glVertex3d
.LVL634:
	.loc 24 116 0
	movsd	.LC4(%rip), %xmm3
	movsd	32(%rsp), %xmm6
	mulsd	8(%rsp), %xmm3
	movsd	24(%rsp), %xmm5
	movapd	%xmm6, %xmm2
	movsd	16(%rsp), %xmm4
	movapd	%xmm5, %xmm1
	movapd	%xmm4, %xmm0
	call	glColor4d
.LVL635:
	.loc 24 117 0
	xorpd	%xmm2, %xmm2
	movsd	8(%r14), %xmm1
	movsd	(%r14), %xmm0
	call	glVertex3d
.LVL636:
.LBE9233:
.LBE9235:
	.loc 24 213 0
	movslq	36(%r12), %rax
	cmpl	%ebx, %eax
	jle	.L427
.LVL637:
.L434:
.LBB9236:
.LBB9237:
	.loc 21 771 0 discriminator 2
	movq	%rbp, %r14
	addq	8(%r12), %r14
.LVL638:
.LBE9237:
.LBE9236:
.LBB9238:
.LBB9234:
	.loc 24 84 0 discriminator 2
	movq	%r15, %rax
	movsd	.LC1(%rip), %xmm7
	subq	24(%r14), %rax
	cvtsi2sdq	%rax, %xmm0
	movl	120(%r13), %eax
	cvtsi2sdq	%rax, %xmm1
.LBB9231:
.LBB9203:
.LBB9204:
.LBB9205:
.LBB9206:
.LBB9207:
	.loc 17 293 0 discriminator 2
	movq	32(%r14), %rax
.LBE9207:
.LBE9206:
.LBE9205:
.LBE9204:
.LBE9203:
	.loc 24 87 0 discriminator 2
	cmpq	$3, -24(%rax)
.LBE9231:
	.loc 24 84 0 discriminator 2
	divsd	%xmm1, %xmm0
	subsd	%xmm0, %xmm7
	movsd	%xmm7, 8(%rsp)
.LVL639:
.LBB9232:
	.loc 24 87 0 discriminator 2
	jne	.L445
.LVL640:
.LBB9208:
.LBB9209:
.LBB9210:
.LBB9211:
	.loc 17 316 0
	movl	-8(%rax), %edi
	testl	%edi, %edi
	js	.L431
.LBE9211:
.LBE9210:
.LBE9209:
	.loc 24 93 0
	leaq	32(%r14), %rax
.LVL641:
.LBB9216:
.LBB9213:
.LBB9212:
	.loc 17 317 0
	movq	%rax, %rdi
	movq	%rax, 24(%rsp)
	call	_ZNSs12_M_leak_hardEv
.LVL642:
.LBE9212:
.LBE9213:
.LBB9214:
.LBB9215:
	.loc 17 293 0
	movq	32(%r14), %rax
.LBE9215:
.LBE9214:
.LBE9216:
	.loc 24 93 0
	movsbl	(%rax), %edx
.LBB9217:
.LBB9218:
.LBB9219:
	.loc 17 316 0
	movl	-8(%rax), %esi
	testl	%esi, %esi
.LBE9219:
.LBE9218:
.LBE9217:
	.loc 24 93 0
	leal	-65(%rdx), %ecx
	movl	%ecx, 16(%rsp)
.LVL643:
.LBB9224:
.LBB9221:
.LBB9220:
	.loc 17 316 0
	js	.L432
	.loc 17 317 0
	movq	24(%rsp), %rdi
	call	_ZNSs12_M_leak_hardEv
.LVL644:
.LBE9220:
.LBE9221:
.LBB9222:
.LBB9223:
	.loc 17 293 0
	movq	32(%r14), %rax
.LBE9223:
.LBE9222:
.LBE9224:
	.loc 24 94 0
	movsbl	1(%rax), %edx
.LBB9225:
.LBB9226:
.LBB9227:
	.loc 17 316 0
	movl	-8(%rax), %ecx
.LBE9227:
.LBE9226:
.LBE9225:
	.loc 24 94 0
	subl	$65, %edx
.LVL645:
.LBB9230:
.LBB9229:
.LBB9228:
	.loc 17 316 0
	testl	%ecx, %ecx
	js	.L433
	.loc 17 317 0
	movq	24(%rsp), %rdi
	movl	%edx, 32(%rsp)
	call	_ZNSs12_M_leak_hardEv
.LVL646:
	movq	32(%r14), %rax
	movl	32(%rsp), %edx
.LVL647:
.L433:
.LBE9228:
.LBE9229:
.LBE9230:
	.loc 24 95 0
	movsbl	2(%rax), %esi
	.loc 24 96 0
	movl	%edx, %eax
.LVL648:
	movl	$29, %edx
	imull	%edx, %eax
	.loc 24 95 0
	subl	$65, %esi
.LVL649:
	.loc 24 96 0
	imull	$841, %esi, %esi
.LVL650:
	addl	%eax, %esi
	addl	16(%rsp), %esi
.LVL651:
	movl	$-2104705089, %eax
	imull	%esi
	movl	%esi, %eax
	movl	%esi, %edi
	sarl	$31, %eax
	addl	%esi, %edx
	sarl	$7, %edx
	subl	%eax, %edx
	movl	%esi, %eax
	imull	$251, %edx, %edx
	imull	%esi, %edi
	subl	%edx, %eax
	cvtsi2sd	%eax, %xmm4
	movl	$-2104705089, %eax
	imull	%edi
	movl	%edi, %eax
	sarl	$31, %eax
	addl	%edi, %edx
	sarl	$7, %edx
	subl	%eax, %edx
	movl	%edi, %eax
	imull	$251, %edx, %edx
	imull	%edi, %esi
.LVL652:
	subl	%edx, %eax
	cvtsi2sd	%eax, %xmm5
	movl	$-2104705089, %eax
	divsd	.LC2(%rip), %xmm4
	imull	%esi
	movl	%esi, %eax
	sarl	$31, %eax
	addl	%esi, %edx
	sarl	$7, %edx
	subl	%eax, %edx
	imull	$251, %edx, %edx
	subl	%edx, %esi
	cvtsi2sd	%esi, %xmm6
	divsd	.LC2(%rip), %xmm5
	divsd	.LC2(%rip), %xmm6
	jmp	.L430
.LVL653:
	.p2align 4,,10
	.p2align 3
.L431:
	.loc 24 93 0
	movsbl	(%rax), %edx
	leal	-65(%rdx), %ecx
	movl	%ecx, 16(%rsp)
.LVL654:
.L432:
	.loc 24 94 0
	movsbl	1(%rax), %edx
	subl	$65, %edx
.LVL655:
	jmp	.L433
.LVL656:
	.p2align 4,,10
	.p2align 3
.L427:
.LBE9208:
.LBE9232:
.LBE9234:
.LBE9238:
.LBE9199:
.LBB9239:
	.loc 24 220 0
	testl	%eax, %eax
	je	.L435
	.loc 24 220 0 is_stmt 0 discriminator 1
	cmpl	%eax, 40(%rsp)
	je	.L435
.LVL657:
.LBE9239:
.LBE9288:
	.loc 24 201 0 is_stmt 1
	movq	8(%r12), %rdx
.LVL658:
.LBB9289:
.LBB9281:
.LBB9240:
.LBB9241:
.LBB9242:
	.loc 21 771 0
	leaq	(%rax,%rax,4), %rax
.LBE9242:
.LBE9241:
	.loc 24 223 0
	leaq	64(%rsp), %rdi
	movq	%r13, %rsi
	movq	%r15, %r8
.LBB9244:
.LBB9243:
	.loc 21 771 0
	salq	$3, %rax
.LVL659:
	leaq	(%rdx,%rax), %rcx
.LBE9243:
.LBE9244:
.LBB9245:
.LBB9246:
	leaq	-40(%rdx,%rax), %rdx
.LBE9246:
.LBE9245:
	.loc 24 223 0
	call	_ZN5Paths11getNowPointER9PathPointS1_l
.LEHE22:
.LVL660:
	.loc 24 224 0
	leaq	64(%rsp), %rsi
	movq	%r15, %rdx
	movq	%r13, %rdi
.LEHB23:
	call	_ZN5Paths8drawPathER9PathPointl
.LEHE23:
.LVL661:
.LBB9247:
.LBB9248:
.LBB9249:
.LBB9250:
.LBB9251:
.LBB9252:
.LBB9253:
	.loc 17 293 0
	movq	96(%rsp), %rax
.LBE9253:
.LBE9252:
.LBE9251:
.LBE9250:
	.loc 17 539 0
	leaq	-24(%rax), %rdi
.LVL662:
.LBB9254:
.LBB9255:
	.loc 17 240 0
	cmpq	$_ZNSs4_Rep20_S_empty_rep_storageE, %rdi
	jne	.L455
.LVL663:
.L435:
.LEHB24:
.LBE9255:
.LBE9254:
.LBE9249:
.LBE9248:
.LBE9247:
.LBE9240:
.LBE9281:
	.loc 24 226 0
	call	glEnd
.LVL664:
.LBE9289:
	.loc 24 227 0
	addq	$120, %rsp
	.cfi_remember_state
	.cfi_def_cfa_offset 56
	popq	%rbx
	.cfi_def_cfa_offset 48
.LVL665:
	popq	%rbp
	.cfi_def_cfa_offset 40
	popq	%r12
	.cfi_def_cfa_offset 32
.LVL666:
	popq	%r13
	.cfi_def_cfa_offset 24
.LVL667:
	popq	%r14
	.cfi_def_cfa_offset 16
	popq	%r15
	.cfi_def_cfa_offset 8
.LVL668:
	ret
.LVL669:
	.p2align 4,,10
	.p2align 3
.L444:
	.cfi_restore_state
.LBB9290:
.LBB9282:
	movl	40(%rsp), %ebx
.LVL670:
	jmp	.L421
.LVL671:
.L447:
.L453:
	movq	%rax, %rbx
.LVL672:
.LBE9282:
.LBB9283:
.LBB9279:
.LBB9274:
.LBB9275:
.LBB9276:
	.loc 17 539 0
	movq	96(%rsp), %rax
	leaq	63(%rsp), %rsi
	leaq	-24(%rax), %rdi
	call	_ZNSs4_Rep10_M_disposeERKSaIcE
.LVL673:
	movq	%rbx, %rdi
	call	_Unwind_Resume
.LEHE24:
.LVL674:
.L455:
.LBE9276:
.LBE9275:
.LBE9274:
.LBB9277:
.LBB9272:
.LBB9270:
.LBB9268:
.LBB9266:
.LBB9256:
.LBB9257:
	.loc 19 81 0
	movl	$_ZL28__gthrw___pthread_key_createPjPFvPvE, %ecx
.LBE9257:
.LBE9256:
	.loc 17 246 0
	leaq	16(%rdi), %rdx
.LVL675:
.LBB9264:
.LBB9262:
	.loc 19 81 0
	testq	%rcx, %rcx
	je	.L438
.LVL676:
.LBB9258:
.LBB9259:
	.loc 19 49 0
	movl	$-1, %eax
	lock xaddl	%eax, (%rdx)
.LVL677:
.L439:
.LBE9259:
.LBE9258:
.LBE9262:
.LBE9264:
	.loc 17 245 0
	testl	%eax, %eax
	jg	.L435
	.loc 17 249 0
	leaq	63(%rsp), %rsi
.LVL678:
	call	_ZNSs4_Rep10_M_destroyERKSaIcE
.LVL679:
	jmp	.L435
.LVL680:
.L446:
	.p2align 4,,3
	jmp	.L453
.LVL681:
.L454:
.LBE9266:
.LBE9268:
.LBE9270:
.LBE9272:
.LBE9277:
.LBE9279:
.LBE9283:
.LBB9284:
.LBB9196:
.LBB9194:
.LBB9192:
.LBB9190:
.LBB9188:
.LBB9186:
.LBB9176:
.LBB9177:
	.loc 19 81 0
	movl	$_ZL28__gthrw___pthread_key_createPjPFvPvE, %ecx
.LBE9177:
.LBE9176:
	.loc 17 246 0
	leaq	16(%rdi), %rdx
.LVL682:
.LBB9184:
.LBB9182:
	.loc 19 81 0
	testq	%rcx, %rcx
	je	.L424
.LVL683:
.LBB9178:
.LBB9179:
	.loc 19 49 0
	movl	$-1, %eax
	lock xaddl	%eax, (%rdx)
.LVL684:
.L425:
.LBE9179:
.LBE9178:
.LBE9182:
.LBE9184:
	.loc 17 245 0
	testl	%eax, %eax
	jg	.L423
	.loc 17 249 0
	leaq	63(%rsp), %rsi
.LVL685:
	call	_ZNSs4_Rep10_M_destroyERKSaIcE
.LVL686:
	jmp	.L423
.LVL687:
.L438:
.LBE9186:
.LBE9188:
.LBE9190:
.LBE9192:
.LBE9194:
.LBE9196:
.LBE9284:
.LBB9285:
.LBB9280:
.LBB9278:
.LBB9273:
.LBB9271:
.LBB9269:
.LBB9267:
.LBB9265:
.LBB9263:
.LBB9260:
.LBB9261:
	.loc 19 67 0
	movl	-8(%rax), %edx
.LVL688:
	.loc 19 68 0
	leal	-1(%rdx), %ecx
	movl	%ecx, -8(%rax)
.LBE9261:
.LBE9260:
	.loc 19 84 0
	movl	%edx, %eax
	jmp	.L439
.LVL689:
.L424:
.LBE9263:
.LBE9265:
.LBE9267:
.LBE9269:
.LBE9271:
.LBE9273:
.LBE9278:
.LBE9280:
.LBE9285:
.LBB9286:
.LBB9197:
.LBB9195:
.LBB9193:
.LBB9191:
.LBB9189:
.LBB9187:
.LBB9185:
.LBB9183:
.LBB9180:
.LBB9181:
	.loc 19 67 0
	movl	-8(%rax), %edx
.LVL690:
	.loc 19 68 0
	leal	-1(%rdx), %ecx
	movl	%ecx, -8(%rax)
.LBE9181:
.LBE9180:
	.loc 19 84 0
	movl	%edx, %eax
	jmp	.L425
.LBE9183:
.LBE9185:
.LBE9187:
.LBE9189:
.LBE9191:
.LBE9193:
.LBE9195:
.LBE9197:
.LBE9286:
.LBE9290:
	.cfi_endproc
.LFE5365:
	.section	.gcc_except_table
.LLSDA5365:
	.byte	0xff
	.byte	0xff
	.byte	0x1
	.uleb128 .LLSDACSE5365-.LLSDACSB5365
.LLSDACSB5365:
	.uleb128 .LEHB20-.LFB5365
	.uleb128 .LEHE20-.LEHB20
	.uleb128 0
	.uleb128 0
	.uleb128 .LEHB21-.LFB5365
	.uleb128 .LEHE21-.LEHB21
	.uleb128 .L446-.LFB5365
	.uleb128 0
	.uleb128 .LEHB22-.LFB5365
	.uleb128 .LEHE22-.LEHB22
	.uleb128 0
	.uleb128 0
	.uleb128 .LEHB23-.LFB5365
	.uleb128 .LEHE23-.LEHB23
	.uleb128 .L447-.LFB5365
	.uleb128 0
	.uleb128 .LEHB24-.LFB5365
	.uleb128 .LEHE24-.LEHB24
	.uleb128 0
	.uleb128 0
.LLSDACSE5365:
	.text
	.size	_ZN5Paths12drawPathLineER4Pathll, .-_ZN5Paths12drawPathLineER4Pathll
	.section	.rodata.str1.1,"aMS",@progbits,1
.LC5:
	.string	"vector::reserve"
	.section	.text._ZNSt6vectorI4PathSaIS0_EE7reserveEm,"axG",@progbits,_ZNSt6vectorI4PathSaIS0_EE7reserveEm,comdat
	.align 2
	.p2align 4,,15
	.weak	_ZNSt6vectorI4PathSaIS0_EE7reserveEm
	.type	_ZNSt6vectorI4PathSaIS0_EE7reserveEm, @function
_ZNSt6vectorI4PathSaIS0_EE7reserveEm:
.LFB5770:
	.file 26 "/usr/include/c++/4.8/bits/vector.tcc"
	.loc 26 65 0
	.cfi_startproc
.LVL691:
	pushq	%r15
	.cfi_def_cfa_offset 16
	.cfi_offset 15, -16
.LBB9403:
	.loc 26 68 0
	movabsq	$461168601842738790, %rax
.LBE9403:
	.loc 26 65 0
	pushq	%r14
	.cfi_def_cfa_offset 24
	.cfi_offset 14, -24
	pushq	%r13
	.cfi_def_cfa_offset 32
	.cfi_offset 13, -32
	pushq	%r12
	.cfi_def_cfa_offset 40
	.cfi_offset 12, -40
	pushq	%rbp
	.cfi_def_cfa_offset 48
	.cfi_offset 6, -48
	pushq	%rbx
	.cfi_def_cfa_offset 56
	.cfi_offset 3, -56
	subq	$88, %rsp
	.cfi_def_cfa_offset 144
.LBB9597:
	.loc 26 68 0
	cmpq	%rax, %rsi
	ja	.L504
.LBE9597:
	.loc 26 66 0
	movq	(%rdi), %rbx
.LVL692:
.LBB9598:
.LBB9404:
.LBB9405:
.LBB9406:
	.loc 21 727 0
	movq	16(%rdi), %rax
	movabsq	$-3689348814741910323, %rdx
	movq	%rdi, %rbp
	subq	%rbx, %rax
	sarq	$3, %rax
	imulq	%rdx, %rax
.LBE9406:
.LBE9405:
	.loc 26 70 0
	cmpq	%rax, %rsi
	ja	.L505
.LBE9404:
.LBE9598:
	.loc 26 85 0
	addq	$88, %rsp
	.cfi_remember_state
	.cfi_def_cfa_offset 56
	popq	%rbx
	.cfi_def_cfa_offset 48
	popq	%rbp
	.cfi_def_cfa_offset 40
	popq	%r12
	.cfi_def_cfa_offset 32
	popq	%r13
	.cfi_def_cfa_offset 24
	popq	%r14
	.cfi_def_cfa_offset 16
	popq	%r15
	.cfi_def_cfa_offset 8
	ret
.L505:
	.cfi_restore_state
	.loc 26 66 0
	movq	8(%rdi), %r12
.LVL693:
.LBB9599:
.LBB9594:
.LBB9407:
.LBB9408:
.LBB9409:
	.loc 21 646 0
	movq	%r12, %rax
	subq	%rbx, %rax
	movq	%rax, 8(%rsp)
	sarq	$3, 8(%rsp)
	imulq	8(%rsp), %rdx
.LBE9409:
.LBE9408:
.LBB9411:
.LBB9412:
.LBB9413:
.LBB9414:
	.loc 21 168 0
	testq	%rsi, %rsi
.LBE9414:
.LBE9413:
.LBE9412:
.LBE9411:
.LBB9450:
.LBB9410:
	.loc 21 646 0
	movq	%rdx, 8(%rsp)
.LVL694:
.LBE9410:
.LBE9450:
.LBB9451:
.LBB9448:
.LBB9419:
.LBB9417:
	.loc 21 168 0
	je	.L485
.LVL695:
.LBB9415:
.LBB9416:
	.loc 4 104 0
	leaq	(%rsi,%rsi,4), %rax
	salq	$3, %rax
	movq	%rax, %rdi
.LVL696:
	movq	%rax, 16(%rsp)
	call	_Znwm
.LVL697:
	movq	%rax, %r14
.LVL698:
.L459:
.LBE9416:
.LBE9415:
.LBE9417:
.LBE9419:
.LBB9420:
.LBB9421:
.LBB9422:
.LBB9423:
.LBB9424:
	.file 27 "/usr/include/c++/4.8/bits/stl_uninitialized.h"
	.loc 27 74 0
	cmpq	%r12, %rbx
	.loc 27 71 0
	movq	%r14, %rdx
	.loc 27 74 0
	je	.L464
.LVL699:
	.p2align 4,,10
	.p2align 3
.L495:
.LBB9425:
.LBB9426:
	.loc 22 75 0
	testq	%rdx, %rdx
	je	.L463
.LVL700:
.LBB9427:
.LBB9428:
.LBB9429:
.LBB9430:
.LBB9431:
	.loc 17 272 0
	movq	(%rbx), %rax
	movq	%rdx, %rcx
	subq	%r14, %rcx
	movq	%rax, (%rdx)
.LVL701:
.LBE9431:
.LBE9430:
.LBB9432:
.LBB9433:
	.loc 17 297 0
	movq	$_ZNSs4_Rep20_S_empty_rep_storageE+24, (%rbx)
.LVL702:
.LBE9433:
.LBE9432:
.LBE9429:
.LBB9434:
.LBB9435:
.LBB9436:
.LBB9437:
	.loc 21 97 0
	movq	$0, 8(%rdx)
	movq	$0, 16(%rcx,%r14)
	movq	$0, 24(%rcx,%r14)
.LVL703:
.LBE9437:
.LBE9436:
.LBB9438:
.LBB9439:
.LBB9440:
	.loc 15 176 0
	movq	8(%rbx), %rax
	movq	%rax, 8(%rdx)
.LVL704:
	.loc 15 177 0
	movq	$0, 8(%rbx)
.LVL705:
.LBE9440:
.LBE9439:
.LBB9441:
.LBB9442:
	.loc 15 176 0
	movq	16(%rbx), %rcx
	.loc 15 175 0
	movq	16(%rdx), %rax
.LVL706:
	.loc 15 176 0
	movq	%rcx, 16(%rdx)
.LVL707:
	.loc 15 177 0
	movq	%rax, 16(%rbx)
.LVL708:
.LBE9442:
.LBE9441:
.LBB9443:
.LBB9444:
	.loc 15 176 0
	movq	24(%rbx), %rcx
	.loc 15 175 0
	movq	24(%rdx), %rax
.LVL709:
	.loc 15 176 0
	movq	%rcx, 24(%rdx)
.LVL710:
	.loc 15 177 0
	movq	%rax, 24(%rbx)
.LBE9444:
.LBE9443:
.LBE9438:
.LBE9435:
.LBE9434:
	.loc 20 70 0
	movl	32(%rbx), %eax
.LVL711:
	movl	%eax, 32(%rdx)
.LVL712:
	movl	36(%rbx), %eax
	movl	%eax, 36(%rdx)
.LVL713:
.L463:
.LBE9428:
.LBE9427:
.LBE9426:
.LBE9425:
.LBB9445:
.LBB9446:
	.loc 25 972 0
	addq	$40, %rbx
.LVL714:
.LBE9446:
.LBE9445:
	.loc 27 74 0
	addq	$40, %rdx
.LVL715:
	cmpq	%rbx, %r12
	jne	.L495
.LVL716:
.L464:
.LBE9424:
.LBE9423:
.LBE9422:
.LBE9421:
.LBE9420:
.LBE9448:
.LBE9451:
	.loc 26 77 0
	movq	8(%rbp), %rax
	movq	%rax, %rsi
	movq	0(%rbp), %rax
.LVL717:
.LBB9452:
.LBB9453:
.LBB9454:
.LBB9455:
.LBB9456:
	.loc 22 102 0
	movq	%rsi, %rdi
	cmpq	%rax, %rsi
	leaq	8(%rax), %r13
	je	.L462
	movq	%rbp, 24(%rsp)
	movq	%rsi, %r15
	movq	%r13, %rbp
.LVL718:
	movq	%rax, %r12
.LVL719:
	movq	%rax, %r13
.LVL720:
	.p2align 4,,10
	.p2align 3
.L500:
	movq	%r13, %r9
	subq	%r12, %r9
.LBB9457:
.LBB9458:
.LBB9459:
.LBB9460:
	.loc 21 416 0
	movq	8(%r9,%rbp), %rcx
	movq	(%r9,%rbp), %rdx
.LVL721:
.LBB9461:
.LBB9462:
.LBB9463:
.LBB9464:
.LBB9465:
	.loc 22 102 0
	cmpq	%rdx, %rcx
	je	.L486
	movl	$_ZL28__gthrw___pthread_key_createPjPFvPvE, %eax
	movq	%rdx, %rbx
	leaq	32(%rdx), %r8
	testq	%rax, %rax
	je	.L471
.LVL722:
	.p2align 4,,10
	.p2align 3
.L475:
	movq	%rbx, %rax
	subq	%rdx, %rax
.LBB9466:
.LBB9467:
.LBB9468:
.LBB9469:
.LBB9470:
.LBB9471:
.LBB9472:
.LBB9473:
	.loc 17 293 0
	movq	(%r8,%rax), %rax
.LBE9473:
.LBE9472:
.LBE9471:
.LBE9470:
	.loc 17 539 0
	leaq	-24(%rax), %rdi
.LVL723:
.LBB9477:
.LBB9478:
	.loc 17 240 0
	cmpq	$_ZNSs4_Rep20_S_empty_rep_storageE, %rdi
	jne	.L506
.LVL724:
.L473:
.LBE9478:
.LBE9477:
.LBE9469:
.LBE9468:
.LBE9467:
.LBE9466:
	.loc 22 102 0
	addq	$40, %rbx
.LVL725:
	cmpq	%rbx, %rcx
	jne	.L475
.LVL726:
.L470:
	movq	(%r9,%rbp), %rdi
.LVL727:
.L466:
.LBE9465:
.LBE9464:
.LBE9463:
.LBE9462:
.LBE9461:
.LBB9523:
.LBB9524:
.LBB9525:
	.loc 21 173 0
	testq	%rdi, %rdi
	je	.L476
.LVL728:
.LBB9526:
.LBB9527:
	.loc 4 110 0
	call	_ZdlPv
.LVL729:
.L476:
.LBE9527:
.LBE9526:
.LBE9525:
.LBE9524:
.LBE9523:
.LBE9460:
.LBE9459:
.LBB9536:
.LBB9537:
.LBB9538:
.LBB9539:
.LBB9540:
.LBB9541:
	.loc 17 293 0
	movq	0(%r13), %rax
.LBE9541:
.LBE9540:
.LBE9539:
.LBE9538:
	.loc 17 539 0
	leaq	-24(%rax), %rdi
.LVL730:
.LBB9542:
.LBB9543:
	.loc 17 240 0
	cmpq	$_ZNSs4_Rep20_S_empty_rep_storageE, %rdi
	jne	.L507
.LVL731:
.L478:
.LBE9543:
.LBE9542:
.LBE9537:
.LBE9536:
.LBE9458:
.LBE9457:
	.loc 22 102 0
	addq	$40, %r13
.LVL732:
	cmpq	%r13, %r15
	jne	.L500
	movq	24(%rsp), %rbp
	movq	0(%rbp), %rdi
.LVL733:
.L462:
.LBE9456:
.LBE9455:
.LBE9454:
.LBE9453:
.LBE9452:
.LBB9584:
.LBB9585:
	.loc 21 173 0
	testq	%rdi, %rdi
	je	.L484
.LVL734:
.LBB9586:
.LBB9587:
	.loc 4 110 0
	call	_ZdlPv
.LVL735:
.L484:
.LBE9587:
.LBE9586:
.LBE9585:
.LBE9584:
	.loc 26 82 0
	movq	8(%rsp), %rax
	.loc 26 81 0
	movq	%r14, 0(%rbp)
	.loc 26 82 0
	leaq	(%rax,%rax,4), %rdx
	.loc 26 83 0
	movq	16(%rsp), %rax
	.loc 26 82 0
	leaq	(%r14,%rdx,8), %rdx
	.loc 26 83 0
	addq	%r14, %rax
	.loc 26 82 0
	movq	%rdx, 8(%rbp)
	.loc 26 83 0
	movq	%rax, 16(%rbp)
.LBE9407:
.LBE9594:
.LBE9599:
	.loc 26 85 0
	addq	$88, %rsp
	.cfi_remember_state
	.cfi_def_cfa_offset 56
	popq	%rbx
	.cfi_def_cfa_offset 48
	popq	%rbp
	.cfi_def_cfa_offset 40
.LVL736:
	popq	%r12
	.cfi_def_cfa_offset 32
	popq	%r13
	.cfi_def_cfa_offset 24
	popq	%r14
	.cfi_def_cfa_offset 16
.LVL737:
	popq	%r15
	.cfi_def_cfa_offset 8
	ret
.LVL738:
.L486:
	.cfi_restore_state
.LBB9600:
.LBB9595:
.LBB9592:
.LBB9588:
.LBB9581:
.LBB9578:
.LBB9575:
.LBB9572:
.LBB9569:
.LBB9566:
.LBB9560:
.LBB9532:
.LBB9528:
.LBB9519:
.LBB9515:
.LBB9511:
.LBB9507:
	.loc 22 102 0
	movq	%rcx, %rdi
	jmp	.L466
.LVL739:
.L485:
.LBE9507:
.LBE9511:
.LBE9515:
.LBE9519:
.LBE9528:
.LBE9532:
.LBE9560:
.LBE9566:
.LBE9569:
.LBE9572:
.LBE9575:
.LBE9578:
.LBE9581:
.LBE9588:
.LBB9589:
.LBB9449:
.LBB9447:
.LBB9418:
	.loc 21 168 0
	movq	$0, 16(%rsp)
	xorl	%r14d, %r14d
	jmp	.L459
.LVL740:
.L506:
.LBE9418:
.LBE9447:
.LBE9449:
.LBE9589:
.LBB9590:
.LBB9582:
.LBB9579:
.LBB9576:
.LBB9573:
.LBB9570:
.LBB9567:
.LBB9561:
.LBB9533:
.LBB9529:
.LBB9520:
.LBB9516:
.LBB9512:
.LBB9508:
.LBB9504:
.LBB9501:
.LBB9498:
.LBB9495:
.LBB9491:
.LBB9488:
.LBB9479:
.LBB9480:
.LBB9481:
	.loc 19 49 0
	movl	$-1, %esi
	lock xaddl	%esi, -8(%rax)
.LBE9481:
.LBE9480:
.LBE9479:
	.loc 17 245 0
	testl	%esi, %esi
	jg	.L473
	.loc 17 249 0
	leaq	79(%rsp), %rsi
.LVL741:
	movq	%r8, 56(%rsp)
	movq	%rdx, 48(%rsp)
	movq	%rcx, 40(%rsp)
	movq	%r9, 32(%rsp)
	call	_ZNSs4_Rep10_M_destroyERKSaIcE
.LVL742:
	movq	56(%rsp), %r8
	movq	48(%rsp), %rdx
	movq	40(%rsp), %rcx
	movq	32(%rsp), %r9
	jmp	.L473
.LVL743:
.L507:
.LBE9488:
.LBE9491:
.LBE9495:
.LBE9498:
.LBE9501:
.LBE9504:
.LBE9508:
.LBE9512:
.LBE9516:
.LBE9520:
.LBE9529:
.LBE9533:
.LBE9561:
.LBB9562:
.LBB9558:
.LBB9556:
.LBB9554:
.LBB9544:
.LBB9545:
	.loc 19 81 0
	movl	$_ZL28__gthrw___pthread_key_createPjPFvPvE, %ecx
.LBE9545:
.LBE9544:
	.loc 17 246 0
	leaq	16(%rdi), %rdx
.LVL744:
.LBB9552:
.LBB9550:
	.loc 19 81 0
	testq	%rcx, %rcx
	je	.L479
.LVL745:
.LBB9546:
.LBB9547:
	.loc 19 49 0
	movl	$-1, %eax
	lock xaddl	%eax, (%rdx)
.LVL746:
.L480:
.LBE9547:
.LBE9546:
.LBE9550:
.LBE9552:
	.loc 17 245 0
	testl	%eax, %eax
	jg	.L478
	.loc 17 249 0
	leaq	79(%rsp), %rsi
.LVL747:
	call	_ZNSs4_Rep10_M_destroyERKSaIcE
.LVL748:
	jmp	.L478
.LVL749:
.L504:
.LBE9554:
.LBE9556:
.LBE9558:
.LBE9562:
.LBE9567:
.LBE9570:
.LBE9573:
.LBE9576:
.LBE9579:
.LBE9582:
.LBE9590:
.LBE9592:
.LBE9595:
	.loc 26 69 0
	movl	$.LC5, %edi
.LVL750:
	call	_ZSt20__throw_length_errorPKc
.LVL751:
.L471:
	movq	%rbx, %rax
	subq	%rdx, %rax
.LBB9596:
.LBB9593:
.LBB9591:
.LBB9583:
.LBB9580:
.LBB9577:
.LBB9574:
.LBB9571:
.LBB9568:
.LBB9563:
.LBB9534:
.LBB9530:
.LBB9521:
.LBB9517:
.LBB9513:
.LBB9509:
.LBB9505:
.LBB9502:
.LBB9499:
.LBB9496:
.LBB9492:
.LBB9476:
.LBB9475:
.LBB9474:
	.loc 17 293 0
	movq	(%r8,%rax), %rax
.LBE9474:
.LBE9475:
.LBE9476:
.LBE9492:
	.loc 17 539 0
	leaq	-24(%rax), %rdi
.LVL752:
.LBB9493:
.LBB9489:
	.loc 17 240 0
	cmpq	$_ZNSs4_Rep20_S_empty_rep_storageE, %rdi
	jne	.L508
.LVL753:
.L469:
.LBE9489:
.LBE9493:
.LBE9496:
.LBE9499:
.LBE9502:
.LBE9505:
	.loc 22 102 0
	addq	$40, %rbx
.LVL754:
	cmpq	%rbx, %rcx
	jne	.L471
	jmp	.L470
.LVL755:
.L479:
.LBE9509:
.LBE9513:
.LBE9517:
.LBE9521:
.LBE9530:
.LBE9534:
.LBE9563:
.LBB9564:
.LBB9559:
.LBB9557:
.LBB9555:
.LBB9553:
.LBB9551:
.LBB9548:
.LBB9549:
	.loc 19 67 0
	movl	-8(%rax), %edx
.LVL756:
	.loc 19 68 0
	leal	-1(%rdx), %ecx
	movl	%ecx, -8(%rax)
.LBE9549:
.LBE9548:
	.loc 19 84 0
	movl	%edx, %eax
	jmp	.L480
.LVL757:
.L508:
.LBE9551:
.LBE9553:
.LBE9555:
.LBE9557:
.LBE9559:
.LBE9564:
.LBB9565:
.LBB9535:
.LBB9531:
.LBB9522:
.LBB9518:
.LBB9514:
.LBB9510:
.LBB9506:
.LBB9503:
.LBB9500:
.LBB9497:
.LBB9494:
.LBB9490:
.LBB9486:
.LBB9482:
.LBB9483:
	.loc 19 67 0
	movl	-8(%rax), %esi
.LVL758:
	.loc 19 68 0
	leal	-1(%rsi), %r10d
.LBE9483:
.LBE9482:
.LBE9486:
	.loc 17 245 0
	testl	%esi, %esi
.LBB9487:
.LBB9485:
.LBB9484:
	.loc 19 68 0
	movl	%r10d, -8(%rax)
.LBE9484:
.LBE9485:
.LBE9487:
	.loc 17 245 0
	jg	.L469
	.loc 17 249 0
	leaq	79(%rsp), %rsi
.LVL759:
	movq	%r8, 56(%rsp)
	movq	%rdx, 48(%rsp)
	movq	%rcx, 40(%rsp)
	movq	%r9, 32(%rsp)
	call	_ZNSs4_Rep10_M_destroyERKSaIcE
.LVL760:
	movq	56(%rsp), %r8
	movq	48(%rsp), %rdx
	movq	40(%rsp), %rcx
	movq	32(%rsp), %r9
	jmp	.L469
.LBE9490:
.LBE9494:
.LBE9497:
.LBE9500:
.LBE9503:
.LBE9506:
.LBE9510:
.LBE9514:
.LBE9518:
.LBE9522:
.LBE9531:
.LBE9535:
.LBE9565:
.LBE9568:
.LBE9571:
.LBE9574:
.LBE9577:
.LBE9580:
.LBE9583:
.LBE9591:
.LBE9593:
.LBE9596:
.LBE9600:
	.cfi_endproc
.LFE5770:
	.size	_ZNSt6vectorI4PathSaIS0_EE7reserveEm, .-_ZNSt6vectorI4PathSaIS0_EE7reserveEm
	.section	.text._ZNSt16_Sp_counted_baseILN9__gnu_cxx12_Lock_policyE2EE10_M_releaseEv,"axG",@progbits,_ZNSt16_Sp_counted_baseILN9__gnu_cxx12_Lock_policyE2EE10_M_releaseEv,comdat
	.align 2
	.p2align 4,,15
	.weak	_ZNSt16_Sp_counted_baseILN9__gnu_cxx12_Lock_policyE2EE10_M_releaseEv
	.type	_ZNSt16_Sp_counted_baseILN9__gnu_cxx12_Lock_policyE2EE10_M_releaseEv, @function
_ZNSt16_Sp_counted_baseILN9__gnu_cxx12_Lock_policyE2EE10_M_releaseEv:
.LFB5861:
	.loc 2 137 0
	.cfi_startproc
.LVL761:
	pushq	%rbp
	.cfi_def_cfa_offset 16
	.cfi_offset 6, -16
.LBB9615:
.LBB9616:
	.loc 19 81 0
	movl	$_ZL28__gthrw___pthread_key_createPjPFvPvE, %ebp
.LBE9616:
.LBE9615:
	.loc 2 141 0
	leaq	8(%rdi), %rax
.LVL762:
	.loc 2 137 0
	pushq	%rbx
	.cfi_def_cfa_offset 24
	.cfi_offset 3, -24
	movq	%rdi, %rbx
	subq	$8, %rsp
	.cfi_def_cfa_offset 32
.LBB9623:
.LBB9621:
	.loc 19 81 0
	testq	%rbp, %rbp
	je	.L510
.LVL763:
.LBB9617:
.LBB9618:
	.loc 19 49 0
	movl	$-1, %edx
	lock xaddl	%edx, (%rax)
	movl	%edx, %eax
.LVL764:
.L511:
.LBE9618:
.LBE9617:
.LBE9621:
.LBE9623:
	.loc 2 141 0
	cmpl	$1, %eax
	je	.L518
.LVL765:
.L509:
	.loc 2 164 0
	addq	$8, %rsp
	.cfi_remember_state
	.cfi_def_cfa_offset 24
	popq	%rbx
	.cfi_def_cfa_offset 16
.LVL766:
	popq	%rbp
	.cfi_def_cfa_offset 8
	ret
.LVL767:
	.p2align 4,,10
	.p2align 3
.L518:
	.cfi_restore_state
	.loc 2 144 0
	movq	(%rbx), %rax
	movq	%rbx, %rdi
	call	*16(%rax)
.LVL768:
.LBB9624:
.LBB9625:
	.loc 19 81 0
	testq	%rbp, %rbp
.LBE9625:
.LBE9624:
	.loc 2 158 0
	leaq	12(%rbx), %rax
.LVL769:
.LBB9632:
.LBB9630:
	.loc 19 81 0
	je	.L514
.LVL770:
.LBB9626:
.LBB9627:
	.loc 19 49 0
	movl	$-1, %edx
	lock xaddl	%edx, (%rax)
	movl	%edx, %eax
.LVL771:
.L515:
.LBE9627:
.LBE9626:
.LBE9630:
.LBE9632:
	.loc 2 157 0
	cmpl	$1, %eax
	jne	.L509
	.loc 2 161 0
	movq	(%rbx), %rax
	movq	%rbx, %rdi
	movq	24(%rax), %rax
	.loc 2 164 0
	addq	$8, %rsp
	.cfi_remember_state
	.cfi_def_cfa_offset 24
	popq	%rbx
	.cfi_def_cfa_offset 16
.LVL772:
	popq	%rbp
	.cfi_def_cfa_offset 8
	.loc 2 161 0
	jmp	*%rax
.LVL773:
.L510:
	.cfi_restore_state
.LBB9633:
.LBB9622:
.LBB9619:
.LBB9620:
	.loc 19 67 0
	movl	8(%rdi), %eax
.LVL774:
	.loc 19 68 0
	leal	-1(%rax), %edx
	movl	%edx, 8(%rdi)
	jmp	.L511
.LVL775:
.L514:
.LBE9620:
.LBE9619:
.LBE9622:
.LBE9633:
.LBB9634:
.LBB9631:
.LBB9628:
.LBB9629:
	.loc 19 67 0
	movl	12(%rbx), %eax
.LVL776:
	.loc 19 68 0
	leal	-1(%rax), %edx
	movl	%edx, 12(%rbx)
	jmp	.L515
.LBE9629:
.LBE9628:
.LBE9631:
.LBE9634:
	.cfi_endproc
.LFE5861:
	.size	_ZNSt16_Sp_counted_baseILN9__gnu_cxx12_Lock_policyE2EE10_M_releaseEv, .-_ZNSt16_Sp_counted_baseILN9__gnu_cxx12_Lock_policyE2EE10_M_releaseEv
	.section	.rodata.str1.8,"aMS",@progbits,1
	.align 8
.LC6:
	.string	"Paths::runMakePathsBuffer() start."
	.align 8
.LC7:
	.string	"Paths::runMakePathsBuffer() end."
	.text
	.align 2
	.p2align 4,,15
	.globl	_ZN5Paths18runMakePathsBufferERSt6vectorI4PathSaIS1_EEN14TimeSeparation8PositionE
	.type	_ZN5Paths18runMakePathsBufferERSt6vectorI4PathSaIS1_EEN14TimeSeparation8PositionE, @function
_ZN5Paths18runMakePathsBufferERSt6vectorI4PathSaIS1_EEN14TimeSeparation8PositionE:
.LFB5350:
	.loc 24 55 0
	.cfi_startproc
	.cfi_personality 0x3,__gxx_personality_v0
	.cfi_lsda 0x3,.LLSDA5350
.LVL777:
	pushq	%r15
	.cfi_def_cfa_offset 16
	.cfi_offset 15, -16
	pushq	%r14
	.cfi_def_cfa_offset 24
	.cfi_offset 14, -24
	pushq	%r13
	.cfi_def_cfa_offset 32
	.cfi_offset 13, -32
	movq	%rsi, %r13
.LBB10143:
.LBB10144:
.LBB10145:
	.loc 9 535 0
	movl	$.LC6, %esi
.LVL778:
.LBE10145:
.LBE10144:
.LBE10143:
	.loc 24 55 0
	pushq	%r12
	.cfi_def_cfa_offset 40
	.cfi_offset 12, -40
	movl	%edx, %r12d
.LBB10747:
.LBB10149:
.LBB10146:
	.loc 9 535 0
	movl	$34, %edx
.LVL779:
.LBE10146:
.LBE10149:
.LBE10747:
	.loc 24 55 0
	pushq	%rbp
	.cfi_def_cfa_offset 48
	.cfi_offset 6, -48
	movq	%rdi, %rbp
.LBB10748:
.LBB10150:
.LBB10147:
	.loc 9 535 0
	movl	$_ZSt4cout, %edi
.LVL780:
.LBE10147:
.LBE10150:
.LBE10748:
	.loc 24 55 0
	pushq	%rbx
	.cfi_def_cfa_offset 56
	.cfi_offset 3, -56
	subq	$40, %rsp
	.cfi_def_cfa_offset 96
.LEHB25:
.LBB10749:
.LBB10151:
.LBB10148:
	.loc 9 535 0
	call	_ZSt16__ostream_insertIcSt11char_traitsIcEERSt13basic_ostreamIT_T0_ES6_PKS3_l
.LVL781:
.LBE10148:
.LBE10151:
.LBB10152:
.LBB10153:
.LBB10154:
	.loc 9 565 0
	movq	_ZSt4cout(%rip), %rax
.LBE10154:
.LBE10153:
.LBE10152:
.LBE10749:
	movq	-24(%rax), %rax
	movq	_ZSt4cout+240(%rax), %rbx
.LVL782:
.LBB10750:
.LBB10174:
.LBB10171:
.LBB10168:
.LBB10155:
.LBB10156:
.LBB10157:
	.loc 11 48 0
	testq	%rbx, %rbx
	je	.L567
.LVL783:
.LBE10157:
.LBE10156:
.LBB10159:
.LBB10160:
	.file 28 "/usr/include/c++/4.8/bits/locale_facets.h"
	.loc 28 867 0
	cmpb	$0, 56(%rbx)
	je	.L521
	.loc 28 868 0
	movzbl	67(%rbx), %eax
.LVL784:
.L522:
.LBE10160:
.LBE10159:
.LBE10155:
	.loc 9 565 0
	movsbl	%al, %esi
	movl	$_ZSt4cout, %edi
	call	_ZNSo3putEc
.LVL785:
.LBB10164:
.LBB10165:
	.loc 9 587 0
	movq	%rax, %rdi
	call	_ZNSo5flushEv
.LEHE25:
.LVL786:
.LBE10165:
.LBE10164:
.LBE10168:
.LBE10171:
.LBE10174:
.LBB10175:
.LBB10176:
.LBB10177:
.LBB10178:
.LBB10179:
.LBB10180:
.LBB10181:
.LBB10182:
.LBB10183:
.LBB10184:
.LBB10185:
.LBB10186:
.LBB10187:
.LBB10188:
	.loc 4 104 0
	movl	$184, %edi
.LEHB26:
	call	_Znwm
.LEHE26:
.LVL787:
.LBE10188:
.LBE10187:
.LBE10186:
.LBB10191:
.LBB10192:
.LBB10193:
.LBB10194:
	.loc 4 120 0
	testq	%rax, %rax
.LBE10194:
.LBE10193:
.LBE10192:
.LBE10191:
.LBB10476:
.LBB10190:
.LBB10189:
	.loc 4 104 0
	movq	%rax, %rbx
.LVL788:
.LBE10189:
.LBE10190:
.LBE10476:
.LBB10477:
.LBB10469:
.LBB10462:
.LBB10455:
	.loc 4 120 0
	je	.L564
.LVL789:
.LBB10195:
.LBB10196:
	.loc 2 396 0
	leaq	24(%rax), %r14
.LBB10197:
.LBB10198:
.LBB10199:
.LBB10200:
.LBB10201:
.LBB10202:
.LBB10203:
.LBB10204:
.LBB10205:
	.loc 1 317 0
	leaq	80(%rax), %rdi
.LBE10205:
.LBE10204:
.LBE10203:
.LBE10202:
.LBE10201:
.LBE10200:
.LBE10199:
.LBE10198:
.LBE10197:
.LBB10433:
.LBB10434:
	.loc 2 110 0
	movl	$1, 8(%rax)
	movl	$1, 12(%rax)
.LBE10434:
.LBE10433:
	.loc 2 394 0
	movq	$_ZTVSt23_Sp_counted_ptr_inplaceINSt13__future_base17_Async_state_implISt12_Bind_simpleIFZN5Paths18runMakePathsBufferERSt6vectorI4PathSaIS5_EEN14TimeSeparation8PositionEEUlvE_vEEvEESaISE_ELN9__gnu_cxx12_Lock_policyE2EE+16, (%rax)
.LVL790:
	.loc 2 396 0
	movq	%r14, 16(%rax)
.LVL791:
.LBB10435:
.LBB10427:
.LBB10421:
.LBB10415:
.LBB10409:
.LBB10218:
.LBB10216:
.LBB10212:
.LBB10211:
	.loc 1 317 0
	movq	$_ZTVNSt13__future_base11_State_baseE+16, 24(%rax)
.LVL792:
.LBB10206:
.LBB10207:
.LBB10208:
.LBB10209:
.LBB10210:
	.loc 7 132 0
	movq	$0, 32(%rax)
.LBE10210:
.LBE10209:
.LBE10208:
.LBE10207:
.LBE10206:
	.loc 1 317 0
	movq	$0, 40(%rax)
	movq	$0, 48(%rax)
	movq	$0, 56(%rax)
	movq	$0, 64(%rax)
	movq	$0, 72(%rax)
	call	_ZNSt18condition_variableC1Ev
.LVL793:
	movb	$0, 128(%rbx)
	movl	$0, 132(%rbx)
.LVL794:
.LBE10211:
.LBE10212:
.LBE10216:
.LBE10218:
	.loc 1 1495 0
	movl	$16, %edi
.LBB10219:
.LBB10217:
.LBB10213:
.LBB10214:
.LBB10215:
	.loc 6 73 0
	movq	$0, 136(%rbx)
.LBE10215:
.LBE10214:
.LBE10213:
	.loc 1 1469 0
	movl	$0, 144(%rbx)
.LBE10217:
.LBE10219:
	.loc 1 1495 0
	movq	$_ZTVNSt13__future_base17_Async_state_implISt12_Bind_simpleIFZN5Paths18runMakePathsBufferERSt6vectorI4PathSaIS4_EEN14TimeSeparation8PositionEEUlvE_vEEvEE+16, 24(%rbx)
.LEHB27:
	call	_Znwm
.LEHE27:
.LVL795:
	movq	$0, (%rax)
	movq	$0, 8(%rax)
.LVL796:
.LBB10220:
.LBB10221:
	.loc 1 539 0
	movq	%rax, %rdi
.LBE10221:
.LBE10220:
	.loc 1 1495 0
	movq	%rax, %r15
.LEHB28:
.LBB10223:
.LBB10222:
	.loc 1 539 0
	call	_ZNSt13__future_base12_Result_baseC2Ev
.LEHE28:
.LVL797:
	movq	$_ZTVNSt13__future_base7_ResultIvEE+16, (%r15)
.LVL798:
.LBE10222:
.LBE10223:
.LBB10224:
.LBB10225:
.LBB10226:
.LBB10227:
.LBB10228:
.LBB10229:
.LBB10230:
.LBB10231:
.LBB10232:
.LBB10233:
.LBB10234:
.LBB10235:
.LBB10236:
.LBB10237:
	.loc 4 104 0
	movl	$56, %edi
.LBE10237:
.LBE10236:
.LBE10235:
.LBE10234:
.LBE10233:
.LBE10232:
.LBE10231:
.LBE10230:
.LBE10229:
.LBE10228:
.LBE10227:
.LBE10226:
.LBE10225:
.LBE10224:
.LBB10390:
.LBB10391:
.LBB10392:
.LBB10393:
.LBB10394:
	.loc 7 142 0
	movq	%r15, 152(%rbx)
.LVL799:
.LBE10394:
.LBE10393:
.LBE10392:
.LBE10391:
.LBE10390:
.LBB10395:
.LBB10396:
.LBB10397:
.LBB10398:
.LBB10399:
	movq	%rbp, 160(%rbx)
	movq	%r13, 168(%rbx)
	movl	%r12d, 176(%rbx)
.LVL800:
.LBE10399:
.LBE10398:
.LBE10397:
.LBE10396:
.LBE10395:
.LBB10400:
.LBB10375:
.LBB10372:
.LBB10320:
.LBB10321:
	.loc 6 73 0
	movq	$0, (%rsp)
.LVL801:
.LEHB29:
.LBE10321:
.LBE10320:
.LBB10322:
.LBB10318:
.LBB10316:
.LBB10314:
.LBB10312:
.LBB10310:
.LBB10295:
.LBB10292:
.LBB10242:
.LBB10240:
.LBB10238:
	.loc 4 104 0
	call	_Znwm
.LEHE29:
.LVL802:
.LBE10238:
.LBE10240:
.LBE10242:
.LBB10243:
.LBB10244:
.LBB10245:
.LBB10246:
	.loc 4 120 0
	testq	%rax, %rax
.LBE10246:
.LBE10245:
.LBE10244:
.LBE10243:
.LBB10288:
.LBB10241:
.LBB10239:
	.loc 4 104 0
	movq	%rax, %r12
.LVL803:
.LBE10239:
.LBE10241:
.LBE10288:
.LBB10289:
.LBB10285:
.LBB10282:
.LBB10279:
	.loc 4 120 0
	je	.L569
.LVL804:
.LBB10247:
.LBB10248:
.LBB10249:
.LBB10250:
	.loc 2 110 0
	movl	$1, 8(%rax)
	movl	$1, 12(%rax)
.LBE10250:
.LBE10249:
	.loc 2 396 0
	leaq	24(%rax), %rax
	.loc 2 394 0
	movq	$_ZTVSt23_Sp_counted_ptr_inplaceINSt6thread5_ImplISt12_Bind_simpleIFZNSt13__future_base17_Async_state_implIS2_IFZN5Paths18runMakePathsBufferERSt6vectorI4PathSaIS7_EEN14TimeSeparation8PositionEEUlvE_vEEvEC1EOSF_EUlvE_vEEEESaISL_ELN9__gnu_cxx12_Lock_policyE2EE+16, -24(%rax)
.LVL805:
.LBE10248:
.LBE10247:
.LBE10279:
.LBE10282:
.LBE10285:
.LBE10289:
.LBE10292:
.LBE10295:
.LBB10296:
.LBB10297:
.LBB10298:
	.loc 2 589 0
	movl	$_ZTISt19_Sp_make_shared_tag, %esi
.LBE10298:
.LBE10297:
.LBE10296:
.LBB10305:
.LBB10293:
.LBB10290:
.LBB10286:
.LBB10283:
.LBB10280:
.LBB10277:
.LBB10275:
.LBB10251:
.LBB10252:
.LBB10253:
.LBB10254:
.LBB10255:
.LBB10256:
.LBB10257:
	.loc 6 97 0
	movq	$0, 32(%r12)
.LBE10257:
.LBE10256:
.LBE10255:
.LBE10254:
.LBE10253:
.LBE10252:
.LBE10251:
	.loc 2 396 0
	movq	%rax, 16(%r12)
.LVL806:
.LBB10273:
.LBB10271:
.LBB10269:
.LBB10267:
.LBB10265:
.LBB10259:
.LBB10258:
	.loc 6 97 0
	movq	$0, 40(%r12)
.LBE10258:
.LBE10259:
.LBE10265:
.LBE10267:
.LBE10269:
.LBE10271:
.LBE10273:
.LBE10275:
.LBE10277:
.LBE10280:
.LBE10283:
.LBE10286:
.LBE10290:
.LBE10293:
.LBE10305:
.LBB10306:
.LBB10302:
.LBB10299:
	.loc 2 589 0
	movq	%r12, %rdi
.LBE10299:
.LBE10302:
.LBE10306:
.LBB10307:
.LBB10294:
.LBB10291:
.LBB10287:
.LBB10284:
.LBB10281:
.LBB10278:
.LBB10276:
.LBB10274:
.LBB10272:
.LBB10270:
.LBB10268:
.LBB10266:
	.loc 6 111 0
	movq	$_ZTVNSt6thread5_ImplISt12_Bind_simpleIFZNSt13__future_base17_Async_state_implIS1_IFZN5Paths18runMakePathsBufferERSt6vectorI4PathSaIS6_EEN14TimeSeparation8PositionEEUlvE_vEEvEC1EOSE_EUlvE_vEEEE+16, 24(%r12)
.LVL807:
.LBB10260:
.LBB10261:
.LBB10262:
.LBB10263:
.LBB10264:
	.loc 7 142 0
	movq	%r14, 48(%r12)
.LVL808:
.LBE10264:
.LBE10263:
.LBE10262:
.LBE10261:
.LBE10260:
.LBE10266:
.LBE10268:
.LBE10270:
.LBE10272:
.LBE10274:
.LBE10276:
.LBE10278:
.LBE10281:
.LBE10284:
.LBE10287:
.LBE10291:
.LBE10294:
.LBE10307:
.LBB10308:
.LBB10303:
.LBB10300:
	.loc 2 589 0
	call	_ZNSt23_Sp_counted_ptr_inplaceINSt6thread5_ImplISt12_Bind_simpleIFZNSt13__future_base17_Async_state_implIS2_IFZN5Paths18runMakePathsBufferERSt6vectorI4PathSaIS7_EEN14TimeSeparation8PositionEEUlvE_vEEvEC1EOSF_EUlvE_vEEEESaISL_ELN9__gnu_cxx12_Lock_policyE2EE14_M_get_deleterERKSt9type_info
.LVL809:
.L524:
.LBE10300:
.LBE10303:
.LBE10308:
.LBE10310:
.LBE10312:
.LBE10314:
.LBE10316:
.LBE10318:
.LBE10322:
	.loc 6 135 0
	leaq	16(%rsp), %rsi
.LVL810:
	movq	%rsp, %rdi
.LBB10323:
.LBB10324:
.LBB10325:
	.loc 2 799 0
	movq	%rax, 16(%rsp)
.LVL811:
.LBB10326:
.LBB10327:
	.loc 2 576 0
	movq	%r12, 24(%rsp)
.LEHB30:
.LBE10327:
.LBE10326:
.LBE10325:
.LBE10324:
.LBE10323:
	.loc 6 135 0
	call	_ZNSt6thread15_M_start_threadESt10shared_ptrINS_10_Impl_baseEE
.LEHE30:
.LVL812:
.LBB10328:
.LBB10329:
.LBB10330:
.LBB10331:
	.loc 2 545 0
	movq	24(%rsp), %r12
.LVL813:
	testq	%r12, %r12
	je	.L530
.LVL814:
.LBB10332:
.LBB10333:
.LBB10334:
.LBB10335:
	.loc 19 81 0
	movl	$_ZL28__gthrw___pthread_key_createPjPFvPvE, %r13d
.LVL815:
.LBE10335:
.LBE10334:
	.loc 2 141 0
	leaq	8(%r12), %rax
.LVL816:
.LBB10342:
.LBB10340:
	.loc 19 81 0
	testq	%r13, %r13
	je	.L526
.LVL817:
.LBB10336:
.LBB10337:
	.loc 19 49 0
	movl	$-1, %edx
	lock xaddl	%edx, (%rax)
	movl	%edx, %eax
.LVL818:
.L527:
.LBE10337:
.LBE10336:
.LBE10340:
.LBE10342:
	.loc 2 141 0
	cmpl	$1, %eax
	je	.L601
.LVL819:
.L530:
.LBE10333:
.LBE10332:
.LBE10331:
.LBE10330:
.LBE10329:
.LBE10328:
.LBE10372:
.LBE10375:
.LBB10376:
.LBB10377:
	.loc 6 150 0
	cmpq	$0, 136(%rbx)
	jne	.L602
.LVL820:
.LBB10378:
.LBB10379:
.LBB10380:
	.loc 15 176 0
	movq	(%rsp), %rax
.LBE10380:
.LBE10379:
.LBE10378:
.LBE10377:
.LBE10376:
.LBE10400:
.LBE10409:
.LBE10415:
.LBE10421:
.LBE10427:
.LBE10435:
.LBE10196:
.LBE10195:
.LBE10455:
.LBE10462:
.LBE10469:
.LBE10477:
.LBE10185:
.LBE10184:
.LBE10183:
.LBE10182:
.LBE10181:
.LBE10180:
.LBE10179:
.LBE10178:
.LBE10177:
.LBB10534:
.LBB10535:
.LBB10536:
.LBB10537:
.LBB10538:
.LBB10539:
.LBB10540:
.LBB10541:
.LBB10542:
.LBB10543:
	.loc 19 95 0
	movl	$_ZL28__gthrw___pthread_key_createPjPFvPvE, %r13d
.LBE10543:
.LBE10542:
.LBE10541:
.LBE10540:
.LBE10539:
.LBE10538:
.LBE10537:
.LBE10536:
.LBE10535:
.LBE10534:
.LBB10596:
.LBB10529:
.LBB10524:
.LBB10519:
.LBB10514:
.LBB10509:
.LBB10504:
.LBB10491:
.LBB10492:
.LBB10493:
	.loc 2 589 0
	movl	$_ZTISt19_Sp_make_shared_tag, %esi
	movq	%rbx, %rdi
.LBE10493:
.LBE10492:
.LBE10491:
.LBB10498:
.LBB10487:
.LBB10478:
.LBB10470:
.LBB10463:
.LBB10456:
.LBB10449:
.LBB10443:
.LBB10436:
.LBB10428:
.LBB10422:
.LBB10416:
.LBB10410:
.LBB10401:
.LBB10386:
.LBB10384:
.LBB10383:
.LBB10382:
.LBB10381:
	.loc 15 176 0
	movq	%rax, 136(%rbx)
.LVL821:
.LBE10381:
.LBE10382:
.LBE10383:
.LBE10384:
.LBE10386:
.LBE10401:
.LBE10410:
.LBE10416:
.LBE10422:
.LBE10428:
.LBE10436:
.LBE10443:
.LBE10449:
.LBE10456:
.LBE10463:
.LBE10470:
.LBE10478:
.LBE10487:
.LBE10498:
.LBB10499:
.LBB10496:
.LBB10494:
	.loc 2 589 0
	movq	(%rbx), %rax
	call	*32(%rax)
.LVL822:
.LBE10494:
.LBE10496:
.LBE10499:
.LBE10504:
.LBE10509:
.LBE10514:
.LBE10519:
.LBE10524:
.LBE10529:
.LBE10596:
.LBB10597:
.LBB10592:
.LBB10569:
.LBB10566:
.LBB10563:
.LBB10560:
.LBB10557:
.LBB10554:
.LBB10551:
.LBB10548:
	.loc 19 95 0
	testq	%r13, %r13
.LBE10548:
.LBE10551:
.LBE10554:
.LBE10557:
.LBE10560:
.LBE10563:
.LBE10566:
.LBE10569:
.LBE10592:
.LBE10597:
.LBB10598:
.LBB10530:
.LBB10525:
.LBB10520:
.LBB10515:
.LBB10510:
.LBB10505:
.LBB10500:
.LBB10497:
.LBB10495:
	.loc 2 589 0
	movq	%rax, %r12
.LVL823:
.LBE10495:
.LBE10497:
.LBE10500:
.LBE10505:
.LBE10510:
.LBE10515:
.LBE10520:
.LBE10525:
.LBE10530:
.LBE10598:
.LBB10599:
.LBB10593:
.LBB10570:
.LBB10567:
.LBB10564:
.LBB10561:
.LBB10558:
.LBB10555:
	.loc 2 131 0
	leaq	8(%rbx), %rax
.LVL824:
.LBB10552:
.LBB10549:
	.loc 19 95 0
	je	.L603
.LVL825:
.LBB10544:
.LBB10545:
	.loc 19 53 0
	lock addl	$1, (%rax)
.LVL826:
.L542:
.LBE10545:
.LBE10544:
.LBE10549:
.LBE10552:
.LBE10555:
.LBE10558:
.LBE10561:
.LBE10564:
.LBE10567:
.LBE10570:
.LBB10571:
.LBB10572:
	.loc 1 463 0
	testq	%r12, %r12
	je	.L564
.LVL827:
.LBE10572:
.LBE10571:
.LBB10574:
.LBB10575:
.LBB10576:
.LBB10577:
	.file 29 "/usr/include/c++/4.8/bits/atomic_base.h"
	.loc 29 287 0
	movl	$1, %edx
	xchgb	104(%r12), %dl
.LBE10577:
.LBE10576:
	.loc 1 384 0
	testb	%dl, %dl
	jne	.L604
.LVL828:
.LBE10575:
.LBE10574:
.LBE10593:
.LBE10599:
.LBB10600:
.LBB10601:
.LBB10602:
.LBB10603:
.LBB10604:
.LBB10605:
.LBB10606:
.LBB10607:
	.loc 19 81 0
	testq	%r13, %r13
	je	.L550
.LVL829:
.LBB10608:
.LBB10609:
	.loc 19 49 0
	movl	$-1, %edx
	lock xaddl	%edx, (%rax)
	movl	%edx, %eax
.LVL830:
.L551:
.LBE10609:
.LBE10608:
.LBE10607:
.LBE10606:
	.loc 2 141 0
	cmpl	$1, %eax
	je	.L605
.L549:
.LVL831:
.LBE10605:
.LBE10604:
.LBE10603:
.LBE10602:
.LBE10601:
.LBE10600:
.LBE10176:
.LBE10175:
.LBB10657:
.LBB10658:
.LBB10659:
.LBB10660:
.LBB10661:
	.loc 15 177 0
	movq	%r12, 128(%rbp)
.LVL832:
.LBE10661:
.LBE10660:
.LBB10662:
.LBB10663:
	.loc 2 574 0
	movq	136(%rbp), %r12
.LVL833:
	.loc 2 575 0
	movq	%rbx, 136(%rbp)
.LVL834:
.LBE10663:
.LBE10662:
.LBE10659:
.LBE10658:
.LBB10664:
.LBB10665:
.LBB10666:
.LBB10667:
.LBB10668:
.LBB10669:
	.loc 2 545 0
	testq	%r12, %r12
	je	.L561
.LVL835:
.LBB10670:
.LBB10671:
.LBB10672:
.LBB10673:
	.loc 19 81 0
	testq	%r13, %r13
.LBE10673:
.LBE10672:
	.loc 2 141 0
	leaq	8(%r12), %rax
.LVL836:
.LBB10680:
.LBB10678:
	.loc 19 81 0
	je	.L557
.LVL837:
.LBB10674:
.LBB10675:
	.loc 19 49 0
	movl	$-1, %edx
	lock xaddl	%edx, (%rax)
	movl	%edx, %eax
.LVL838:
.L558:
.LBE10675:
.LBE10674:
.LBE10678:
.LBE10680:
	.loc 2 141 0
	cmpl	$1, %eax
	je	.L606
.LVL839:
.L561:
.LBE10671:
.LBE10670:
.LBE10669:
.LBE10668:
.LBE10667:
.LBE10666:
.LBE10665:
.LBE10664:
.LBE10657:
.LBB10716:
.LBB10717:
	.loc 9 535 0
	movl	$32, %edx
	movl	$.LC7, %esi
	movl	$_ZSt4cout, %edi
.LEHB31:
	call	_ZSt16__ostream_insertIcSt11char_traitsIcEERSt13basic_ostreamIT_T0_ES6_PKS3_l
.LVL840:
.LBE10717:
.LBE10716:
.LBB10718:
.LBB10719:
.LBB10720:
	.loc 9 565 0
	movq	_ZSt4cout(%rip), %rax
.LBE10720:
.LBE10719:
.LBE10718:
.LBE10750:
	movq	-24(%rax), %rax
	movq	_ZSt4cout+240(%rax), %rbx
.LVL841:
.LBB10751:
.LBB10735:
.LBB10733:
.LBB10731:
.LBB10721:
.LBB10722:
.LBB10723:
	.loc 11 48 0
	testq	%rbx, %rbx
	je	.L567
.LVL842:
.LBE10723:
.LBE10722:
.LBB10724:
.LBB10725:
	.loc 28 867 0
	cmpb	$0, 56(%rbx)
	je	.L562
	.loc 28 868 0
	movzbl	67(%rbx), %eax
.LVL843:
.L563:
.LBE10725:
.LBE10724:
.LBE10721:
	.loc 9 565 0
	movsbl	%al, %esi
	movl	$_ZSt4cout, %edi
	call	_ZNSo3putEc
.LVL844:
.LBB10728:
.LBB10729:
	.loc 9 587 0
	movq	%rax, %rdi
	call	_ZNSo5flushEv
.LVL845:
.LBE10729:
.LBE10728:
.LBE10731:
.LBE10733:
.LBE10735:
.LBE10751:
	.loc 24 67 0
	addq	$40, %rsp
	.cfi_remember_state
	.cfi_def_cfa_offset 56
.LVL846:
	popq	%rbx
	.cfi_def_cfa_offset 48
.LVL847:
	popq	%rbp
	.cfi_def_cfa_offset 40
.LVL848:
	popq	%r12
	.cfi_def_cfa_offset 32
.LVL849:
	popq	%r13
	.cfi_def_cfa_offset 24
	popq	%r14
	.cfi_def_cfa_offset 16
.LVL850:
	popq	%r15
	.cfi_def_cfa_offset 8
.LVL851:
	ret
.LVL852:
	.p2align 4,,10
	.p2align 3
.L521:
	.cfi_restore_state
.LBB10752:
.LBB10736:
.LBB10172:
.LBB10169:
.LBB10166:
.LBB10162:
.LBB10161:
	.loc 28 869 0
	movq	%rbx, %rdi
	call	_ZNKSt5ctypeIcE13_M_widen_initEv
.LVL853:
	.loc 28 870 0
	movq	(%rbx), %rax
	movl	$10, %esi
	movq	%rbx, %rdi
	call	*48(%rax)
.LVL854:
	jmp	.L522
.LVL855:
	.p2align 4,,10
	.p2align 3
.L562:
.LBE10161:
.LBE10162:
.LBE10166:
.LBE10169:
.LBE10172:
.LBE10736:
.LBB10737:
.LBB10734:
.LBB10732:
.LBB10730:
.LBB10727:
.LBB10726:
	.loc 28 869 0
	movq	%rbx, %rdi
	call	_ZNKSt5ctypeIcE13_M_widen_initEv
.LVL856:
	.loc 28 870 0
	movq	(%rbx), %rax
	movl	$10, %esi
	movq	%rbx, %rdi
	call	*48(%rax)
.LVL857:
	jmp	.L563
.LVL858:
	.p2align 4,,10
	.p2align 3
.L605:
.LBE10726:
.LBE10727:
.LBE10730:
.LBE10732:
.LBE10734:
.LBE10737:
.LBB10738:
.LBB10652:
.LBB10639:
.LBB10636:
.LBB10633:
.LBB10630:
.LBB10627:
.LBB10624:
	.loc 2 144 0
	movq	(%rbx), %rax
	movq	%rbx, %rdi
	call	*16(%rax)
.LVL859:
.LBB10613:
.LBB10614:
	.loc 19 81 0
	testq	%r13, %r13
.LBE10614:
.LBE10613:
	.loc 2 158 0
	leaq	12(%rbx), %rax
.LVL860:
.LBB10621:
.LBB10619:
	.loc 19 81 0
	je	.L553
.LVL861:
.LBB10615:
.LBB10616:
	.loc 19 49 0
	movl	$-1, %edx
	lock xaddl	%edx, (%rax)
	movl	%edx, %eax
.LVL862:
.L554:
.LBE10616:
.LBE10615:
.LBE10619:
.LBE10621:
	.loc 2 157 0
	cmpl	$1, %eax
	jne	.L549
	.loc 2 161 0
	movq	(%rbx), %rax
	movq	%rbx, %rdi
	call	*24(%rax)
.LVL863:
	jmp	.L549
.LVL864:
	.p2align 4,,10
	.p2align 3
.L606:
.LBE10624:
.LBE10627:
.LBE10630:
.LBE10633:
.LBE10636:
.LBE10639:
.LBE10652:
.LBE10738:
.LBB10739:
.LBB10713:
.LBB10710:
.LBB10707:
.LBB10704:
.LBB10701:
.LBB10698:
.LBB10695:
.LBB10692:
	.loc 2 144 0
	movq	(%r12), %rax
	movq	%r12, %rdi
	call	*16(%rax)
.LVL865:
.LBB10681:
.LBB10682:
	.loc 19 81 0
	testq	%r13, %r13
.LBE10682:
.LBE10681:
	.loc 2 158 0
	leaq	12(%r12), %rax
.LVL866:
.LBB10689:
.LBB10687:
	.loc 19 81 0
	je	.L559
.LVL867:
.LBB10683:
.LBB10684:
	.loc 19 49 0
	movl	$-1, %edx
	lock xaddl	%edx, (%rax)
	movl	%edx, %eax
.LVL868:
.L560:
.LBE10684:
.LBE10683:
.LBE10687:
.LBE10689:
	.loc 2 157 0
	cmpl	$1, %eax
	jne	.L561
	.loc 2 161 0
	movq	(%r12), %rax
	movq	%r12, %rdi
	call	*24(%rax)
.LVL869:
	jmp	.L561
.LVL870:
	.p2align 4,,10
	.p2align 3
.L569:
.LBE10692:
.LBE10695:
.LBE10698:
.LBE10701:
.LBE10704:
.LBE10707:
.LBE10710:
.LBE10713:
.LBE10739:
.LBB10740:
.LBB10653:
.LBB10640:
.LBB10531:
.LBB10526:
.LBB10521:
.LBB10516:
.LBB10511:
.LBB10506:
.LBB10501:
.LBB10488:
.LBB10479:
.LBB10471:
.LBB10464:
.LBB10457:
.LBB10450:
.LBB10444:
.LBB10437:
.LBB10429:
.LBB10423:
.LBB10417:
.LBB10411:
.LBB10402:
.LBB10387:
.LBB10373:
.LBB10364:
.LBB10319:
.LBB10317:
.LBB10315:
.LBB10313:
.LBB10311:
.LBB10309:
.LBB10304:
.LBB10301:
	.loc 2 589 0
	xorl	%eax, %eax
	jmp	.L524
.LVL871:
	.p2align 4,,10
	.p2align 3
.L601:
.LBE10301:
.LBE10304:
.LBE10309:
.LBE10311:
.LBE10313:
.LBE10315:
.LBE10317:
.LBE10319:
.LBE10364:
.LBB10365:
.LBB10362:
.LBB10360:
.LBB10358:
.LBB10356:
.LBB10354:
	.loc 2 144 0
	movq	(%r12), %rax
	movq	%r12, %rdi
	call	*16(%rax)
.LVL872:
.LBB10343:
.LBB10344:
	.loc 19 81 0
	testq	%r13, %r13
.LBE10344:
.LBE10343:
	.loc 2 158 0
	leaq	12(%r12), %rax
.LVL873:
.LBB10351:
.LBB10349:
	.loc 19 81 0
	je	.L528
.LVL874:
.LBB10345:
.LBB10346:
	.loc 19 49 0
	movl	$-1, %edx
	lock xaddl	%edx, (%rax)
	movl	%edx, %eax
.LVL875:
.L529:
.LBE10346:
.LBE10345:
.LBE10349:
.LBE10351:
	.loc 2 157 0
	cmpl	$1, %eax
	jne	.L530
	.loc 2 161 0
	movq	(%r12), %rax
	movq	%r12, %rdi
	call	*24(%rax)
.LVL876:
	jmp	.L530
.LVL877:
.L567:
.LBE10354:
.LBE10356:
.LBE10358:
.LBE10360:
.LBE10362:
.LBE10365:
.LBE10373:
.LBE10387:
.LBE10402:
.LBE10411:
.LBE10417:
.LBE10423:
.LBE10429:
.LBE10437:
.LBE10444:
.LBE10450:
.LBE10457:
.LBE10464:
.LBE10471:
.LBE10479:
.LBE10488:
.LBE10501:
.LBE10506:
.LBE10511:
.LBE10516:
.LBE10521:
.LBE10526:
.LBE10531:
.LBE10640:
.LBE10653:
.LBE10740:
.LBB10741:
.LBB10173:
.LBB10170:
.LBB10167:
.LBB10163:
.LBB10158:
	.loc 11 49 0
	call	_ZSt16__throw_bad_castv
.LEHE31:
.LVL878:
.L604:
.LBE10158:
.LBE10163:
.LBE10167:
.LBE10170:
.LBE10173:
.LBE10741:
.LBB10742:
.LBB10654:
.LBB10641:
.LBB10594:
.LBB10579:
.LBB10578:
	.loc 1 385 0
	movl	$1, %edi
.LEHB32:
	call	_ZSt20__throw_future_errori
.LEHE32:
.LVL879:
.L576:
	movq	%rax, %rbp
.LVL880:
.L547:
.LBE10578:
.LBE10579:
.LBB10580:
.LBB10581:
.LBB10582:
.LBB10583:
.LBB10584:
	.loc 2 546 0
	movq	%rbx, %rdi
	call	_ZNSt16_Sp_counted_baseILN9__gnu_cxx12_Lock_policyE2EE10_M_releaseEv
.LVL881:
.L546:
.LBE10584:
.LBE10583:
.LBE10582:
.LBE10581:
.LBE10580:
.LBE10594:
.LBE10641:
.LBB10642:
.LBB10643:
.LBB10644:
.LBB10645:
.LBB10646:
	.loc 2 545 0
	testq	%rbx, %rbx
	je	.L541
	.loc 2 546 0
	movq	%rbx, %rdi
	call	_ZNSt16_Sp_counted_baseILN9__gnu_cxx12_Lock_policyE2EE10_M_releaseEv
.LVL882:
.L541:
	movq	%rbp, %rdi
.LEHB33:
	call	_Unwind_Resume
.LEHE33:
.LVL883:
.L564:
.LBE10646:
.LBE10645:
.LBE10644:
.LBE10643:
.LBE10642:
.LBB10647:
.LBB10595:
.LBB10589:
.LBB10573:
	.loc 1 464 0
	movl	$3, %edi
.LEHB34:
	call	_ZSt20__throw_future_errori
.LEHE34:
.LVL884:
.L577:
.LBE10573:
.LBE10589:
.LBB10590:
.LBB10588:
.LBB10587:
.LBB10586:
.LBB10585:
	.loc 2 545 0
	testq	%rbx, %rbx
	movq	%rax, %rbp
.LVL885:
	jne	.L547
	jmp	.L546
.LVL886:
.L603:
.LBE10585:
.LBE10586:
.LBE10587:
.LBE10588:
.LBE10590:
.LBB10591:
.LBB10568:
.LBB10565:
.LBB10562:
.LBB10559:
.LBB10556:
.LBB10553:
.LBB10550:
.LBB10546:
.LBB10547:
	.loc 19 74 0
	addl	$1, 8(%rbx)
	jmp	.L542
.LVL887:
.L557:
.LBE10547:
.LBE10546:
.LBE10550:
.LBE10553:
.LBE10556:
.LBE10559:
.LBE10562:
.LBE10565:
.LBE10568:
.LBE10591:
.LBE10595:
.LBE10647:
.LBE10654:
.LBE10742:
.LBB10743:
.LBB10714:
.LBB10711:
.LBB10708:
.LBB10705:
.LBB10702:
.LBB10699:
.LBB10696:
.LBB10693:
.LBB10690:
.LBB10679:
.LBB10676:
.LBB10677:
	.loc 19 67 0
	movl	8(%r12), %eax
.LVL888:
	.loc 19 68 0
	leal	-1(%rax), %edx
	movl	%edx, 8(%r12)
	jmp	.L558
.LVL889:
.L550:
.LBE10677:
.LBE10676:
.LBE10679:
.LBE10690:
.LBE10693:
.LBE10696:
.LBE10699:
.LBE10702:
.LBE10705:
.LBE10708:
.LBE10711:
.LBE10714:
.LBE10743:
.LBB10744:
.LBB10655:
.LBB10648:
.LBB10637:
.LBB10634:
.LBB10631:
.LBB10628:
.LBB10625:
.LBB10622:
.LBB10612:
.LBB10610:
.LBB10611:
	.loc 19 67 0
	movl	8(%rbx), %eax
.LVL890:
	.loc 19 68 0
	leal	-1(%rax), %edx
	movl	%edx, 8(%rbx)
	jmp	.L551
.LVL891:
.L602:
.LBE10611:
.LBE10610:
.LBE10612:
.LBE10622:
.LBE10625:
.LBE10628:
.LBE10631:
.LBE10634:
.LBE10637:
.LBE10648:
.LBB10649:
.LBB10532:
.LBB10527:
.LBB10522:
.LBB10517:
.LBB10512:
.LBB10507:
.LBB10502:
.LBB10489:
.LBB10480:
.LBB10472:
.LBB10465:
.LBB10458:
.LBB10451:
.LBB10445:
.LBB10438:
.LBB10430:
.LBB10424:
.LBB10418:
.LBB10412:
.LBB10403:
.LBB10388:
.LBB10385:
	.loc 6 151 0
	call	_ZSt9terminatev
.LVL892:
.L559:
.LBE10385:
.LBE10388:
.LBE10403:
.LBE10412:
.LBE10418:
.LBE10424:
.LBE10430:
.LBE10438:
.LBE10445:
.LBE10451:
.LBE10458:
.LBE10465:
.LBE10472:
.LBE10480:
.LBE10489:
.LBE10502:
.LBE10507:
.LBE10512:
.LBE10517:
.LBE10522:
.LBE10527:
.LBE10532:
.LBE10649:
.LBE10655:
.LBE10744:
.LBB10745:
.LBB10715:
.LBB10712:
.LBB10709:
.LBB10706:
.LBB10703:
.LBB10700:
.LBB10697:
.LBB10694:
.LBB10691:
.LBB10688:
.LBB10685:
.LBB10686:
	.loc 19 67 0
	movl	12(%r12), %eax
.LVL893:
	.loc 19 68 0
	leal	-1(%rax), %edx
	movl	%edx, 12(%r12)
	jmp	.L560
.LVL894:
.L553:
.LBE10686:
.LBE10685:
.LBE10688:
.LBE10691:
.LBE10694:
.LBE10697:
.LBE10700:
.LBE10703:
.LBE10706:
.LBE10709:
.LBE10712:
.LBE10715:
.LBE10745:
.LBB10746:
.LBB10656:
.LBB10650:
.LBB10638:
.LBB10635:
.LBB10632:
.LBB10629:
.LBB10626:
.LBB10623:
.LBB10620:
.LBB10617:
.LBB10618:
	.loc 19 67 0
	movl	12(%rbx), %eax
.LVL895:
	.loc 19 68 0
	leal	-1(%rax), %edx
	movl	%edx, 12(%rbx)
	jmp	.L554
.LVL896:
.L528:
.LBE10618:
.LBE10617:
.LBE10620:
.LBE10623:
.LBE10626:
.LBE10629:
.LBE10632:
.LBE10635:
.LBE10638:
.LBE10650:
.LBB10651:
.LBB10533:
.LBB10528:
.LBB10523:
.LBB10518:
.LBB10513:
.LBB10508:
.LBB10503:
.LBB10490:
.LBB10481:
.LBB10473:
.LBB10466:
.LBB10459:
.LBB10452:
.LBB10446:
.LBB10439:
.LBB10431:
.LBB10425:
.LBB10419:
.LBB10413:
.LBB10404:
.LBB10389:
.LBB10374:
.LBB10366:
.LBB10363:
.LBB10361:
.LBB10359:
.LBB10357:
.LBB10355:
.LBB10352:
.LBB10350:
.LBB10347:
.LBB10348:
	.loc 19 67 0
	movl	12(%r12), %eax
.LVL897:
	.loc 19 68 0
	leal	-1(%rax), %edx
	movl	%edx, 12(%r12)
	jmp	.L529
.LVL898:
.L526:
.LBE10348:
.LBE10347:
.LBE10350:
.LBE10352:
.LBB10353:
.LBB10341:
.LBB10338:
.LBB10339:
	.loc 19 67 0
	movl	8(%r12), %eax
.LVL899:
	.loc 19 68 0
	leal	-1(%rax), %edx
	movl	%edx, 8(%r12)
	jmp	.L527
.LVL900:
.L575:
.LBE10339:
.LBE10338:
.LBE10341:
.LBE10353:
.LBE10355:
.LBE10357:
.LBE10359:
.LBE10361:
.LBE10363:
.LBE10366:
.LBB10367:
.LBB10368:
.LBB10369:
.LBB10370:
.LBB10371:
	.loc 2 545 0
	movq	24(%rsp), %rdi
	movq	%rax, %rbp
.LVL901:
	testq	%rdi, %rdi
	je	.L533
	.loc 2 546 0
	call	_ZNSt16_Sp_counted_baseILN9__gnu_cxx12_Lock_policyE2EE10_M_releaseEv
.LVL902:
.L533:
.LBE10371:
.LBE10370:
.LBE10369:
.LBE10368:
.LBE10367:
.LBE10374:
.LBE10389:
.LBE10404:
.LBB10405:
.LBB10406:
	.loc 5 183 0
	movq	152(%rbx), %rdi
	testq	%rdi, %rdi
	je	.L538
.LVL903:
.LBB10407:
.LBB10408:
	.loc 1 196 0
	movq	(%rdi), %rax
	call	*(%rax)
.LVL904:
.L538:
.LBE10408:
.LBE10407:
	.loc 5 185 0
	movq	$0, 152(%rbx)
.LVL905:
.L537:
.LBE10406:
.LBE10405:
	.loc 1 1495 0
	movq	%r14, %rdi
	call	_ZNSt13__future_base19_Async_state_commonD2Ev
.LVL906:
.LBE10413:
.LBE10419:
.LBE10425:
.LBE10431:
.LBE10439:
.LBE10446:
.LBE10452:
.LBE10459:
.LBE10466:
.LBE10473:
.LBE10481:
	.loc 2 506 0
	movq	%rbp, %rdi
.LBB10482:
.LBB10474:
.LBB10467:
.LBB10460:
.LBB10453:
.LBB10447:
.LBB10440:
.LBB10441:
	.loc 2 114 0
	movq	$_ZTVSt16_Sp_counted_baseILN9__gnu_cxx12_Lock_policyE2EE+16, (%rbx)
.LBE10441:
.LBE10440:
.LBE10447:
.LBE10453:
.LBE10460:
.LBE10467:
.LBE10474:
.LBE10482:
	.loc 2 506 0
	call	__cxa_begin_catch
.LVL907:
.LBB10483:
.LBB10484:
.LBB10485:
	.loc 4 110 0
	movq	%rbx, %rdi
	call	_ZdlPv
.LVL908:
.LEHB35:
.LBE10485:
.LBE10484:
.LBE10483:
	.loc 2 509 0
	call	__cxa_rethrow
.LEHE35:
.LVL909:
.L572:
	movq	%rax, %rbp
.LVL910:
	jmp	.L537
.LVL911:
.L570:
	movq	%rax, %rbp
.LVL912:
	.p2align 4,,2
	jmp	.L541
.LVL913:
.L574:
.LBB10486:
.LBB10475:
.LBB10468:
.LBB10461:
.LBB10454:
.LBB10448:
.LBB10442:
.LBB10432:
.LBB10426:
.LBB10420:
.LBB10414:
	.loc 1 1495 0
	movq	%r15, %rdi
	movq	%rax, %rbp
.LVL914:
	call	_ZdlPv
.LVL915:
	jmp	.L537
.LVL916:
.L573:
	movq	%rax, %rbp
.LVL917:
	jmp	.L533
.LVL918:
.L571:
	movq	%rax, %rbp
.LBE10414:
.LBE10420:
.LBE10426:
.LBE10432:
.LBE10442:
.LBE10448:
.LBE10454:
.LBE10461:
.LBE10468:
.LBE10475:
.LBE10486:
	.loc 2 506 0
	.p2align 4,,5
	call	__cxa_end_catch
.LVL919:
	.p2align 4,,2
	jmp	.L541
.LBE10490:
.LBE10503:
.LBE10508:
.LBE10513:
.LBE10518:
.LBE10523:
.LBE10528:
.LBE10533:
.LBE10651:
.LBE10656:
.LBE10746:
.LBE10752:
	.cfi_endproc
.LFE5350:
	.section	.gcc_except_table
	.align 4
.LLSDA5350:
	.byte	0xff
	.byte	0x3
	.uleb128 .LLSDATT5350-.LLSDATTD5350
.LLSDATTD5350:
	.byte	0x1
	.uleb128 .LLSDACSE5350-.LLSDACSB5350
.LLSDACSB5350:
	.uleb128 .LEHB25-.LFB5350
	.uleb128 .LEHE25-.LEHB25
	.uleb128 0
	.uleb128 0
	.uleb128 .LEHB26-.LFB5350
	.uleb128 .LEHE26-.LEHB26
	.uleb128 .L570-.LFB5350
	.uleb128 0
	.uleb128 .LEHB27-.LFB5350
	.uleb128 .LEHE27-.LEHB27
	.uleb128 .L572-.LFB5350
	.uleb128 0x1
	.uleb128 .LEHB28-.LFB5350
	.uleb128 .LEHE28-.LEHB28
	.uleb128 .L574-.LFB5350
	.uleb128 0x1
	.uleb128 .LEHB29-.LFB5350
	.uleb128 .LEHE29-.LEHB29
	.uleb128 .L573-.LFB5350
	.uleb128 0x1
	.uleb128 .LEHB30-.LFB5350
	.uleb128 .LEHE30-.LEHB30
	.uleb128 .L575-.LFB5350
	.uleb128 0x1
	.uleb128 .LEHB31-.LFB5350
	.uleb128 .LEHE31-.LEHB31
	.uleb128 0
	.uleb128 0
	.uleb128 .LEHB32-.LFB5350
	.uleb128 .LEHE32-.LEHB32
	.uleb128 .L576-.LFB5350
	.uleb128 0
	.uleb128 .LEHB33-.LFB5350
	.uleb128 .LEHE33-.LEHB33
	.uleb128 0
	.uleb128 0
	.uleb128 .LEHB34-.LFB5350
	.uleb128 .LEHE34-.LEHB34
	.uleb128 .L577-.LFB5350
	.uleb128 0
	.uleb128 .LEHB35-.LFB5350
	.uleb128 .LEHE35-.LEHB35
	.uleb128 .L571-.LFB5350
	.uleb128 0
.LLSDACSE5350:
	.byte	0x1
	.byte	0
	.align 4
	.long	0

.LLSDATT5350:
	.text
	.size	_ZN5Paths18runMakePathsBufferERSt6vectorI4PathSaIS1_EEN14TimeSeparation8PositionE, .-_ZN5Paths18runMakePathsBufferERSt6vectorI4PathSaIS1_EEN14TimeSeparation8PositionE
	.section	.rodata.str1.8
	.align 8
.LC8:
	.string	"futureMakeBuffer.wait() finish."
	.section	.rodata.str1.1
.LC9:
	.string	"(*currentPaths).size() = "
.LC10:
	.string	" (*bufferPaths).size() = "
	.text
	.align 2
	.p2align 4,,15
	.globl	_ZN5Paths7displayEl
	.type	_ZN5Paths7displayEl, @function
_ZN5Paths7displayEl:
.LFB5366:
	.loc 24 230 0
	.cfi_startproc
	.cfi_personality 0x3,__gxx_personality_v0
	.cfi_lsda 0x3,.LLSDA5366
.LVL920:
	pushq	%r15
	.cfi_def_cfa_offset 16
	.cfi_offset 15, -16
	pushq	%r14
	.cfi_def_cfa_offset 24
	.cfi_offset 14, -24
	pushq	%r13
	.cfi_def_cfa_offset 32
	.cfi_offset 13, -32
	pushq	%r12
	.cfi_def_cfa_offset 40
	.cfi_offset 12, -40
	movq	%rdi, %r12
	pushq	%rbp
	.cfi_def_cfa_offset 48
	.cfi_offset 6, -48
	movq	%rsi, %rbp
.LVL921:
	pushq	%rbx
	.cfi_def_cfa_offset 56
	.cfi_offset 3, -56
.LVL922:
	subq	$24, %rsp
	.cfi_def_cfa_offset 80
.LBB10944:
.LBB10945:
.LBB10946:
.LBB10947:
.LBB10948:
.LBB10949:
	.file 30 "TimeSeparation.h"
	.loc 30 45 0
	movl	48(%rdi), %eax
.LBE10949:
.LBE10948:
.LBE10947:
.LBE10946:
.LBE10945:
.LBE10944:
	movq	24(%rdi), %rdx
.LBB11184:
.LBB11143:
.LBB10962:
.LBB10960:
.LBB10956:
.LBB10954:
	leal	1(%rax), %ecx
.LBB10950:
.LBB10951:
	.loc 21 646 0
	movq	32(%rdi), %rax
.LBE10951:
.LBE10950:
	.loc 30 45 0
	movl	%ecx, %esi
.LVL923:
.LBB10953:
.LBB10952:
	.loc 21 646 0
	subq	%rdx, %rax
	sarq	$3, %rax
.LBE10952:
.LBE10953:
	.loc 30 45 0
	subq	$1, %rax
	cmpq	%rax, %rsi
	jnb	.L648
	salq	$3, %rsi
.L608:
.LVL924:
.LBE10954:
.LBE10956:
.LBB10957:
.LBB10958:
	.loc 30 34 0
	cmpq	(%rdx,%rsi), %rbp
	jl	.L609
.LVL925:
	leal	1(%rcx), %eax
.LVL926:
	cmpq	(%rdx,%rax,8), %rbp
	jl	.L685
.LVL927:
.L609:
.LBE10958:
.LBE10957:
.LBE10960:
.LBE10962:
.LBE11143:
	.loc 24 261 0
	movl	$2929, %edi
	.loc 24 267 0
	movq	%rbp, %r15
	.loc 24 270 0
	xorl	%r14d, %r14d
.LEHB36:
	.loc 24 261 0
	call	glDisable
.LVL928:
	.loc 24 263 0
	movl	$3042, %edi
	call	glEnable
.LVL929:
	.loc 24 265 0
	movl	$771, %esi
	movl	$770, %edi
	call	glBlendFunc
.LVL930:
	.loc 24 267 0
	movl	120(%r12), %eax
	subq	%rax, %r15
.LVL931:
.LBB11144:
	.loc 24 273 0
	movq	104(%r12), %rax
.LVL932:
.LBB11145:
.LBB11146:
.LBB11147:
	.loc 25 726 0
	movq	(%rax), %rbx
.LVL933:
.LBE11147:
.LBE11146:
.LBE11145:
.LBB11148:
.LBB11149:
.LBB11150:
	movq	8(%rax), %r13
.LVL934:
.LBE11150:
.LBE11149:
.LBE11148:
	.loc 24 273 0
	cmpq	%r13, %rbx
	jne	.L645
	jmp	.L631
.LVL935:
	.p2align 4,,10
	.p2align 3
.L632:
	addq	$40, %rbx
.LVL936:
	cmpq	%rbx, %r13
	je	.L631
.LVL937:
.L645:
.LBB11151:
.LBB11152:
.LBB11153:
.LBB11154:
	.loc 25 726 0
	movq	16(%rbx), %rax
.LVL938:
.LBE11154:
.LBE11153:
.LBE11152:
.LBE11151:
	.loc 24 277 0
	cmpq	-16(%rax), %r15
	jg	.L632
.LBE11144:
.LBE11184:
	movq	8(%rbx), %rcx
.LVL939:
.LBB11185:
.LBB11177:
	.loc 24 283 0
	cmpq	24(%rcx), %rbp
	jl	.L632
.LVL940:
.LBB11155:
.LBB11156:
.LBB11157:
.LBB11158:
	.loc 21 646 0
	subq	%rcx, %rax
.LVL941:
.LBE11158:
.LBE11157:
.LBB11160:
	.loc 24 163 0
	movl	32(%rbx), %r8d
.LBE11160:
.LBB11163:
.LBB11159:
	.loc 21 646 0
	movq	%rax, %rsi
	movabsq	$-3689348814741910323, %rax
	sarq	$3, %rsi
	imulq	%rax, %rsi
.LBE11159:
.LBE11163:
.LBB11164:
	.loc 24 163 0
	cmpl	%r8d, %esi
.LBE11164:
	.loc 24 160 0
	movl	%esi, %edx
.LVL942:
.LBB11165:
	.loc 24 163 0
	jle	.L633
.LVL943:
	.loc 24 165 0
	movslq	%r8d, %rax
.LVL944:
.LBB11161:
.LBB11162:
	.loc 21 771 0
	leaq	(%rax,%rax,4), %rax
.LVL945:
	salq	$3, %rax
.LBE11162:
.LBE11161:
	.loc 24 165 0
	cmpq	24(%rcx,%rax), %r15
	jl	.L634
	leaq	64(%rcx,%rax), %rax
	jmp	.L636
.LVL946:
	.p2align 4,,10
	.p2align 3
.L637:
	addq	$40, %rax
	cmpq	-40(%rax), %r15
	jl	.L634
.LVL947:
.L636:
	.loc 24 163 0
	addl	$1, %r8d
.LVL948:
	cmpl	%r8d, %edx
	jg	.L637
.LVL949:
.L633:
.LBE11165:
	.loc 24 172 0
	leal	-1(%rsi), %eax
	cltq
.LVL950:
	leaq	(%rax,%rax,4), %rax
.LVL951:
	movq	24(%rcx,%rax,8), %rdi
	cmpq	%rdi, %r15
	jl	.L638
	.loc 24 174 0
	movl	%esi, 32(%rbx)
.L638:
.LVL952:
.LBE11156:
.LBE11155:
.LBB11168:
.LBB11169:
.LBB11170:
	.loc 24 184 0
	movl	36(%rbx), %r8d
.LVL953:
	cmpl	%r8d, %esi
	jle	.L639
.LVL954:
	.loc 24 186 0
	movslq	%r8d, %rax
.LVL955:
.LBB11171:
.LBB11172:
	.loc 21 771 0
	leaq	(%rax,%rax,4), %rax
.LVL956:
	salq	$3, %rax
.LBE11172:
.LBE11171:
	.loc 24 186 0
	cmpq	24(%rcx,%rax), %rbp
	jl	.L640
	leaq	64(%rcx,%rax), %rax
	jmp	.L642
.LVL957:
	.p2align 4,,10
	.p2align 3
.L643:
	addq	$40, %rax
	cmpq	-40(%rax), %rbp
	jl	.L640
.LVL958:
.L642:
	.loc 24 184 0
	addl	$1, %r8d
.LVL959:
	cmpl	%r8d, %edx
	jg	.L643
.LVL960:
.L639:
.LBE11170:
	.loc 24 193 0
	cmpq	%rdi, %rbp
	jl	.L644
	.loc 24 195 0
	movl	%esi, 36(%rbx)
.L644:
.LBE11169:
.LBE11168:
	.loc 24 295 0
	movq	%rbx, %rsi
	movq	%rbp, %rcx
	movq	%r15, %rdx
.LVL961:
	movq	%r12, %rdi
	addq	$40, %rbx
.LVL962:
	.loc 24 298 0
	addl	$1, %r14d
.LVL963:
	.loc 24 295 0
	call	_ZN5Paths12drawPathLineER4Pathll
.LVL964:
	.loc 24 273 0
	cmpq	%rbx, %r13
	jne	.L645
.LVL965:
	.p2align 4,,10
	.p2align 3
.L631:
.LBE11177:
	.loc 24 301 0
	movl	$3042, %edi
	call	glDisable
.LVL966:
	.loc 24 303 0
	movl	$2929, %edi
	call	glEnable
.LVL967:
.LBE11185:
	.loc 24 307 0
	addq	$24, %rsp
	.cfi_remember_state
	.cfi_def_cfa_offset 56
	movl	%r14d, %eax
	popq	%rbx
	.cfi_def_cfa_offset 48
	popq	%rbp
	.cfi_def_cfa_offset 40
.LVL968:
	popq	%r12
	.cfi_def_cfa_offset 32
.LVL969:
	popq	%r13
	.cfi_def_cfa_offset 24
.LVL970:
	popq	%r14
	.cfi_def_cfa_offset 16
	popq	%r15
	.cfi_def_cfa_offset 8
.LVL971:
	ret
.LVL972:
	.p2align 4,,10
	.p2align 3
.L634:
	.cfi_restore_state
.LBB11186:
.LBB11178:
.LBB11175:
.LBB11167:
.LBB11166:
	.loc 24 167 0
	movl	%r8d, 32(%rbx)
	jmp	.L633
.LVL973:
	.p2align 4,,10
	.p2align 3
.L640:
.LBE11166:
.LBE11167:
.LBE11175:
.LBB11176:
.LBB11174:
.LBB11173:
	.loc 24 188 0
	movl	%r8d, 36(%rbx)
	jmp	.L639
.LVL974:
	.p2align 4,,10
	.p2align 3
.L648:
.LBE11173:
.LBE11174:
.LBE11176:
.LBE11178:
.LBB11179:
.LBB10963:
.LBB10961:
.LBB10959:
.LBB10955:
	.loc 30 45 0
	xorl	%esi, %esi
	.loc 30 47 0
	xorl	%ecx, %ecx
	jmp	.L608
.LVL975:
	.p2align 4,,10
	.p2align 3
.L685:
.LBE10955:
.LBE10959:
.LBE10961:
.LBE10963:
.LBE11179:
.LBE11186:
	.loc 1 463 0
	movq	128(%r12), %rbx
.LVL976:
.LBB11187:
.LBB11180:
.LBB10964:
.LBB10965:
.LBB10966:
.LBB10967:
	testq	%rbx, %rbx
	je	.L686
.LVL977:
.LBE10967:
.LBE10966:
.LBB10969:
.LBB10970:
	.loc 1 325 0
	movq	(%rbx), %rax
.LVL978:
	movq	%rbx, %rdi
.LVL979:
.LBB10971:
.LBB10972:
.LBB10973:
.LBB10974:
.LBB10975:
.LBB10976:
.LBB10977:
.LBB10978:
	.loc 14 747 0
	movl	$_ZL28__gthrw___pthread_key_createPjPFvPvE, %r14d
.LBE10978:
.LBE10977:
.LBE10976:
.LBE10975:
.LBE10974:
.LBE10973:
.LBE10972:
.LBE10971:
	.loc 1 325 0
	call	*16(%rax)
.LEHE36:
.LVL980:
	.loc 1 326 0
	leaq	16(%rbx), %rdi
.LVL981:
.LBB10997:
.LBB10995:
.LBB10992:
.LBB10989:
.LBB10986:
.LBB10983:
.LBB10981:
.LBB10979:
	.loc 14 747 0
	testq	%r14, %r14
.LBE10979:
.LBE10981:
.LBE10983:
.LBE10986:
.LBE10989:
.LBE10992:
	.loc 13 441 0
	movb	$0, 8(%rsp)
.LVL982:
	movq	%rdi, (%rsp)
.LBB10993:
.LBB10990:
.LBB10987:
.LBB10984:
.LBB10982:
.LBB10980:
	.loc 14 747 0
	je	.L611
	.loc 14 748 0
	call	_ZL26__gthrw_pthread_mutex_lockP15pthread_mutex_t
.LVL983:
.LBE10980:
.LBE10982:
	.loc 13 137 0
	testl	%eax, %eax
	jne	.L687
.L611:
.LBE10984:
.LBE10987:
	.loc 13 512 0
	movb	$1, 8(%rsp)
.LBE10990:
.LBE10993:
.LBE10995:
.LBE10997:
	.loc 1 327 0
	leaq	56(%rbx), %r13
.LVL984:
	jmp	.L612
.LVL985:
	.p2align 4,,10
	.p2align 3
.L613:
.LBB10998:
.LBB10999:
	.file 31 "/usr/include/c++/4.8/condition_variable"
	.loc 31 93 0
	movq	%rsp, %rsi
	movq	%r13, %rdi
.LEHB37:
	call	_ZNSt18condition_variable4waitERSt11unique_lockISt5mutexE
.LEHE37:
.LVL986:
.L612:
	.loc 31 92 0
	cmpq	$0, 8(%rbx)
	je	.L613
.LVL987:
.LBE10999:
.LBE10998:
.LBB11000:
.LBB11001:
.LBB11002:
	.loc 13 475 0
	cmpb	$0, 8(%rsp)
	jne	.L688
.L614:
.LVL988:
.LBE11002:
.LBE11001:
.LBE11000:
.LBE10970:
.LBE10969:
.LBE10965:
.LBB11030:
.LBB11031:
	.loc 9 535 0
	movl	$31, %edx
	movl	$.LC8, %esi
	movl	$_ZSt4cout, %edi
.LEHB38:
	call	_ZSt16__ostream_insertIcSt11char_traitsIcEERSt13basic_ostreamIT_T0_ES6_PKS3_l
.LVL989:
.LBE11031:
.LBE11030:
.LBB11032:
.LBB11033:
.LBB11034:
	.loc 9 565 0
	movq	_ZSt4cout(%rip), %rax
.LBE11034:
.LBE11033:
.LBE11032:
.LBE10964:
.LBE11180:
.LBE11187:
	movq	-24(%rax), %rax
	movq	_ZSt4cout+240(%rax), %rbx
.LVL990:
.LBB11188:
.LBB11181:
.LBB11139:
.LBB11054:
.LBB11051:
.LBB11048:
.LBB11035:
.LBB11036:
.LBB11037:
	.loc 11 48 0
	testq	%rbx, %rbx
	je	.L616
.LVL991:
.LBE11037:
.LBE11036:
.LBB11039:
.LBB11040:
	.loc 28 867 0
	cmpb	$0, 56(%rbx)
	je	.L620
	.loc 28 868 0
	movzbl	67(%rbx), %eax
.LVL992:
.L621:
.LBE11040:
.LBE11039:
.LBE11035:
	.loc 9 565 0
	movsbl	%al, %esi
	movl	$_ZSt4cout, %edi
	call	_ZNSo3putEc
.LVL993:
.LBB11044:
.LBB11045:
	.loc 9 587 0
	movq	%rax, %rdi
	call	_ZNSo5flushEv
.LVL994:
.LBE11045:
.LBE11044:
.LBE11048:
.LBE11051:
.LBE11054:
	.loc 24 238 0
	movq	104(%r12), %rax
.LVL995:
.LBB11055:
.LBB11056:
	.loc 9 535 0
	movl	$25, %edx
	movl	$.LC9, %esi
	movl	$_ZSt4cout, %edi
.LBE11056:
.LBE11055:
.LBB11058:
.LBB11059:
	.loc 21 646 0
	movq	8(%rax), %rbx
.LVL996:
	subq	(%rax), %rbx
	movabsq	$-3689348814741910323, %rax
.LVL997:
	sarq	$3, %rbx
	imulq	%rax, %rbx
.LVL998:
.LBE11059:
.LBE11058:
.LBB11060:
.LBB11057:
	.loc 9 535 0
	call	_ZSt16__ostream_insertIcSt11char_traitsIcEERSt13basic_ostreamIT_T0_ES6_PKS3_l
.LVL999:
.LBE11057:
.LBE11060:
.LBB11061:
.LBB11062:
	.loc 9 171 0
	movl	$_ZSt4cout, %edi
	movq	%rbx, %rsi
	call	_ZNSo9_M_insertImEERSoT_
.LVL1000:
	movq	%rax, %r13
.LVL1001:
.LBE11062:
.LBE11061:
.LBB11063:
.LBB11064:
.LBB11065:
	.loc 9 565 0
	movq	(%rax), %rax
.LVL1002:
.LBE11065:
.LBE11064:
.LBE11063:
.LBE11139:
.LBE11181:
.LBE11188:
	movq	-24(%rax), %rax
	movq	240(%r13,%rax), %rbx
.LVL1003:
.LBB11189:
.LBB11182:
.LBB11140:
.LBB11080:
.LBB11078:
.LBB11076:
.LBB11066:
.LBB11067:
.LBB11068:
	.loc 11 48 0
	testq	%rbx, %rbx
	je	.L616
.LVL1004:
.LBE11068:
.LBE11067:
.LBB11069:
.LBB11070:
	.loc 28 867 0
	cmpb	$0, 56(%rbx)
	je	.L622
	.loc 28 868 0
	movzbl	67(%rbx), %eax
.LVL1005:
.L623:
.LBE11070:
.LBE11069:
.LBE11066:
	.loc 9 565 0
	movsbl	%al, %esi
	movq	%r13, %rdi
	call	_ZNSo3putEc
.LVL1006:
.LBB11073:
.LBB11074:
	.loc 9 587 0
	movq	%rax, %rdi
	call	_ZNSo5flushEv
.LVL1007:
.LBE11074:
.LBE11073:
.LBE11076:
.LBE11078:
.LBE11080:
	.loc 24 239 0
	movq	112(%r12), %rax
.LVL1008:
.LBB11081:
.LBB11082:
	.loc 9 535 0
	movl	$25, %edx
	movl	$.LC10, %esi
	movl	$_ZSt4cout, %edi
.LBE11082:
.LBE11081:
.LBB11084:
.LBB11085:
	.loc 21 646 0
	movq	8(%rax), %rbx
.LVL1009:
	subq	(%rax), %rbx
	movabsq	$-3689348814741910323, %rax
.LVL1010:
	sarq	$3, %rbx
	imulq	%rax, %rbx
.LVL1011:
.LBE11085:
.LBE11084:
.LBB11086:
.LBB11083:
	.loc 9 535 0
	call	_ZSt16__ostream_insertIcSt11char_traitsIcEERSt13basic_ostreamIT_T0_ES6_PKS3_l
.LVL1012:
.LBE11083:
.LBE11086:
.LBB11087:
.LBB11088:
	.loc 9 171 0
	movl	$_ZSt4cout, %edi
	movq	%rbx, %rsi
	call	_ZNSo9_M_insertImEERSoT_
.LVL1013:
	movq	%rax, %r13
.LVL1014:
.LBE11088:
.LBE11087:
.LBB11089:
.LBB11090:
.LBB11091:
	.loc 9 565 0
	movq	(%rax), %rax
.LVL1015:
.LBE11091:
.LBE11090:
.LBE11089:
.LBE11140:
.LBE11182:
.LBE11189:
	movq	-24(%rax), %rax
	movq	240(%r13,%rax), %rbx
.LVL1016:
.LBB11190:
.LBB11183:
.LBB11141:
.LBB11106:
.LBB11104:
.LBB11102:
.LBB11092:
.LBB11093:
.LBB11094:
	.loc 11 48 0
	testq	%rbx, %rbx
	je	.L616
.LVL1017:
.LBE11094:
.LBE11093:
.LBB11095:
.LBB11096:
	.loc 28 867 0
	cmpb	$0, 56(%rbx)
	je	.L624
	.loc 28 868 0
	movzbl	67(%rbx), %eax
.LVL1018:
.L625:
.LBE11096:
.LBE11095:
.LBE11092:
	.loc 9 565 0
	movsbl	%al, %esi
	movq	%r13, %rdi
	call	_ZNSo3putEc
.LVL1019:
.LBB11099:
.LBB11100:
	.loc 9 587 0
	movq	%rax, %rdi
	call	_ZNSo5flushEv
.LVL1020:
.LBE11100:
.LBE11099:
.LBE11102:
.LBE11104:
.LBE11106:
	.loc 24 242 0
	movq	112(%r12), %rdx
.LVL1021:
	.loc 24 243 0
	movq	104(%r12), %rsi
	.loc 24 244 0
	movq	%rdx, 104(%r12)
.LVL1022:
	.loc 24 243 0
	movq	%rsi, 112(%r12)
.LBB11107:
.LBB11108:
.LBB11109:
.LBB11110:
.LBB11111:
	.loc 25 726 0
	movq	(%rdx), %rax
.LVL1023:
.LBE11111:
.LBE11110:
.LBE11109:
.LBB11112:
.LBB11113:
.LBB11114:
	movq	8(%rdx), %rdx
.LVL1024:
.LBE11114:
.LBE11113:
.LBE11112:
	.loc 24 151 0
	cmpq	%rdx, %rax
	je	.L629
	.p2align 4,,10
	.p2align 3
.L669:
.LVL1025:
	.loc 24 153 0
	movl	$0, 32(%rax)
	.loc 24 154 0
	movl	$0, 36(%rax)
.LVL1026:
.LBB11115:
.LBB11116:
	.loc 25 748 0
	addq	$40, %rax
.LVL1027:
.LBE11116:
.LBE11115:
	.loc 24 151 0
	cmpq	%rax, %rdx
	jne	.L669
.LVL1028:
.L629:
.LBE11108:
.LBE11107:
.LBB11117:
.LBB11118:
.LBB11119:
.LBB11120:
.LBB11121:
.LBB11122:
	.loc 30 45 0
	movl	48(%r12), %eax
.LVL1029:
.LBE11122:
.LBE11121:
.LBE11120:
.LBE11119:
.LBE11118:
.LBE11117:
	.loc 24 252 0
	movq	%r12, %rdi
.LBB11132:
.LBB11131:
.LBB11130:
.LBB11129:
.LBB11128:
.LBB11127:
	.loc 30 45 0
	leal	1(%rax), %edx
.LVL1030:
.LBB11123:
.LBB11124:
	.loc 21 646 0
	movq	32(%r12), %rax
	subq	24(%r12), %rax
.LBE11124:
.LBE11123:
	.loc 30 45 0
	movl	%edx, %ecx
.LBB11126:
.LBB11125:
	.loc 21 646 0
	sarq	$3, %rax
.LBE11125:
.LBE11126:
	.loc 30 45 0
	subq	$1, %rax
	.loc 30 47 0
	cmpq	%rax, %rcx
	movl	$0, %eax
	cmovnb	%eax, %edx
.LBE11127:
.LBE11128:
.LBE11129:
.LBE11130:
	.loc 30 104 0
	movl	%edx, 48(%r12)
.LVL1031:
.LBE11131:
.LBE11132:
	.loc 24 252 0
	movl	$1, %edx
	call	_ZN5Paths18runMakePathsBufferERSt6vectorI4PathSaIS1_EEN14TimeSeparation8PositionE
.LVL1032:
.LBE11141:
	jmp	.L609
.LVL1033:
.L624:
.LBB11142:
.LBB11133:
.LBB11105:
.LBB11103:
.LBB11101:
.LBB11098:
.LBB11097:
	.loc 28 869 0
	movq	%rbx, %rdi
	call	_ZNKSt5ctypeIcE13_M_widen_initEv
.LVL1034:
	.loc 28 870 0
	movq	(%rbx), %rax
	movl	$10, %esi
	movq	%rbx, %rdi
	call	*48(%rax)
.LVL1035:
	jmp	.L625
.LVL1036:
.L622:
.LBE11097:
.LBE11098:
.LBE11101:
.LBE11103:
.LBE11105:
.LBE11133:
.LBB11134:
.LBB11079:
.LBB11077:
.LBB11075:
.LBB11072:
.LBB11071:
	.loc 28 869 0
	movq	%rbx, %rdi
	call	_ZNKSt5ctypeIcE13_M_widen_initEv
.LVL1037:
	.loc 28 870 0
	movq	(%rbx), %rax
	movl	$10, %esi
	movq	%rbx, %rdi
	call	*48(%rax)
.LVL1038:
	jmp	.L623
.LVL1039:
.L620:
.LBE11071:
.LBE11072:
.LBE11075:
.LBE11077:
.LBE11079:
.LBE11134:
.LBB11135:
.LBB11052:
.LBB11049:
.LBB11046:
.LBB11042:
.LBB11041:
	.loc 28 869 0
	movq	%rbx, %rdi
	call	_ZNKSt5ctypeIcE13_M_widen_initEv
.LVL1040:
	.loc 28 870 0
	movq	(%rbx), %rax
	movl	$10, %esi
	movq	%rbx, %rdi
	call	*48(%rax)
.LVL1041:
	jmp	.L621
.LVL1042:
.L688:
.LBE11041:
.LBE11042:
.LBE11046:
.LBE11049:
.LBE11052:
.LBE11135:
.LBB11136:
.LBB11027:
.LBB11025:
.LBB11011:
.LBB11010:
.LBB11009:
.LBB11003:
.LBB11004:
	.loc 13 565 0
	movq	(%rsp), %rdi
	testq	%rdi, %rdi
	je	.L614
.LVL1043:
.LBB11005:
.LBB11006:
.LBB11007:
.LBB11008:
	.loc 14 777 0
	testq	%r14, %r14
	je	.L614
	.loc 14 778 0
	call	_ZL28__gthrw_pthread_mutex_unlockP15pthread_mutex_t
.LVL1044:
	.p2align 4,,5
	jmp	.L614
.LVL1045:
.L686:
.LBE11008:
.LBE11007:
.LBE11006:
.LBE11005:
.LBE11004:
.LBE11003:
.LBE11009:
.LBE11010:
.LBE11011:
.LBE11025:
.LBE11027:
.LBB11028:
.LBB10968:
	.loc 1 464 0
	movl	$3, %edi
.LVL1046:
	call	_ZSt20__throw_future_errori
.LVL1047:
.L616:
.LBE10968:
.LBE11028:
.LBE11136:
.LBB11137:
.LBB11053:
.LBB11050:
.LBB11047:
.LBB11043:
.LBB11038:
	.loc 11 49 0
	call	_ZSt16__throw_bad_castv
.LVL1048:
.L650:
.LBE11038:
.LBE11043:
.LBE11047:
.LBE11050:
.LBE11053:
.LBE11137:
.LBB11138:
.LBB11029:
.LBB11026:
.LBB11012:
.LBB11013:
.LBB11014:
	.loc 13 475 0
	cmpb	$0, 8(%rsp)
	movq	%rax, %rbx
.LVL1049:
	jne	.L689
.L619:
	movq	%rbx, %rdi
	call	_Unwind_Resume
.LVL1050:
.L687:
.LBE11014:
.LBE11013:
.LBE11012:
.LBB11023:
.LBB10996:
.LBB10994:
.LBB10991:
.LBB10988:
.LBB10985:
	.loc 13 138 0
	movl	%eax, %edi
	call	_ZSt20__throw_system_errori
.LEHE38:
.LVL1051:
.L689:
.LBE10985:
.LBE10988:
.LBE10991:
.LBE10994:
.LBE10996:
.LBE11023:
.LBB11024:
.LBB11022:
.LBB11021:
.LBB11015:
.LBB11016:
	.loc 13 565 0
	movq	(%rsp), %rdi
	testq	%rdi, %rdi
	je	.L619
.LVL1052:
.LBB11017:
.LBB11018:
.LBB11019:
.LBB11020:
	.loc 14 777 0
	testq	%r14, %r14
	je	.L619
	.loc 14 778 0
	call	_ZL28__gthrw_pthread_mutex_unlockP15pthread_mutex_t
.LVL1053:
	.p2align 4,,5
	jmp	.L619
.LBE11020:
.LBE11019:
.LBE11018:
.LBE11017:
.LBE11016:
.LBE11015:
.LBE11021:
.LBE11022:
.LBE11024:
.LBE11026:
.LBE11029:
.LBE11138:
.LBE11142:
.LBE11183:
.LBE11190:
	.cfi_endproc
.LFE5366:
	.section	.gcc_except_table
.LLSDA5366:
	.byte	0xff
	.byte	0xff
	.byte	0x1
	.uleb128 .LLSDACSE5366-.LLSDACSB5366
.LLSDACSB5366:
	.uleb128 .LEHB36-.LFB5366
	.uleb128 .LEHE36-.LEHB36
	.uleb128 0
	.uleb128 0
	.uleb128 .LEHB37-.LFB5366
	.uleb128 .LEHE37-.LEHB37
	.uleb128 .L650-.LFB5366
	.uleb128 0
	.uleb128 .LEHB38-.LFB5366
	.uleb128 .LEHE38-.LEHB38
	.uleb128 0
	.uleb128 0
.LLSDACSE5366:
	.text
	.size	_ZN5Paths7displayEl, .-_ZN5Paths7displayEl
	.section	.text._ZNSt8_Rb_treeISsSt4pairIKSs4PathESt10_Select1stIS3_ESt4lessISsESaIS3_EE16_M_insert_uniqueIS0_ISsS2_EEES0_ISt17_Rb_tree_iteratorIS3_EbEOT_,"axG",@progbits,_ZNSt8_Rb_treeISsSt4pairIKSs4PathESt10_Select1stIS3_ESt4lessISsESaIS3_EE16_M_insert_uniqueIS0_ISsS2_EEES0_ISt17_Rb_tree_iteratorIS3_EbEOT_,comdat
	.align 2
	.p2align 4,,15
	.weak	_ZNSt8_Rb_treeISsSt4pairIKSs4PathESt10_Select1stIS3_ESt4lessISsESaIS3_EE16_M_insert_uniqueIS0_ISsS2_EEES0_ISt17_Rb_tree_iteratorIS3_EbEOT_
	.type	_ZNSt8_Rb_treeISsSt4pairIKSs4PathESt10_Select1stIS3_ESt4lessISsESaIS3_EE16_M_insert_uniqueIS0_ISsS2_EEES0_ISt17_Rb_tree_iteratorIS3_EbEOT_, @function
_ZNSt8_Rb_treeISsSt4pairIKSs4PathESt10_Select1stIS3_ESt4lessISsESaIS3_EE16_M_insert_uniqueIS0_ISsS2_EEES0_ISt17_Rb_tree_iteratorIS3_EbEOT_:
.LFB6036:
	.file 32 "/usr/include/c++/4.8/bits/stl_tree.h"
	.loc 32 1368 0
	.cfi_startproc
.LVL1054:
	pushq	%r15
	.cfi_def_cfa_offset 16
	.cfi_offset 15, -16
	movq	%rdi, %rax
.LBB11326:
.LBB11327:
.LBB11328:
	.loc 32 1319 0
	addq	$8, %rax
.LBE11328:
.LBE11327:
.LBE11326:
	.loc 32 1368 0
	pushq	%r14
	.cfi_def_cfa_offset 24
	.cfi_offset 14, -24
	pushq	%r13
	.cfi_def_cfa_offset 32
	.cfi_offset 13, -32
	movq	%rsi, %r13
	pushq	%r12
	.cfi_def_cfa_offset 40
	.cfi_offset 12, -40
	pushq	%rbp
	.cfi_def_cfa_offset 48
	.cfi_offset 6, -48
	pushq	%rbx
	.cfi_def_cfa_offset 56
	.cfi_offset 3, -56
	subq	$40, %rsp
	.cfi_def_cfa_offset 96
	.loc 32 1315 0
	movq	16(%rdi), %r15
.LVL1055:
	.loc 32 1368 0
	movq	%rdi, 16(%rsp)
.LBB11456:
.LBB11369:
.LBB11364:
	.loc 32 1319 0
	movq	%rax, 24(%rsp)
.LVL1056:
	.loc 32 1321 0
	testq	%r15, %r15
	je	.L707
	movq	(%rsi), %rax
.LVL1057:
	movq	%rax, 8(%rsp)
	movq	-24(%rax), %r14
	movq	%rax, %rdi
.LVL1058:
	jmp	.L697
.LVL1059:
	.p2align 4,,10
	.p2align 3
.L718:
.LBB11329:
.LBB11330:
.LBB11331:
.LBB11332:
.LBB11333:
.LBB11334:
	.loc 17 413 0
	cmpq	$-2147483648, %rax
	jl	.L694
.LVL1060:
.L692:
.LBE11334:
.LBE11333:
.LBE11332:
.LBE11331:
.LBE11330:
.LBE11329:
	.loc 32 1325 0
	testl	%eax, %eax
	jns	.L693
.LVL1061:
.L694:
.LBE11364:
.LBE11369:
.LBE11456:
	.loc 32 1323 0
	movq	16(%r15), %rax
.LVL1062:
	movl	$1, %esi
.LVL1063:
.LBB11457:
.LBB11370:
.LBB11365:
	.loc 32 1321 0
	testq	%rax, %rax
	je	.L696
.LVL1064:
.L719:
	movq	8(%rsp), %rdi
	movq	%rax, %r15
.LVL1065:
.L697:
.LBB11347:
.LBB11346:
.LBB11345:
.LBB11344:
.LBB11336:
.LBB11337:
.LBB11338:
.LBB11339:
.LBB11340:
	.loc 17 293 0
	movq	32(%r15), %r12
.LBE11340:
.LBE11339:
.LBE11338:
	.loc 17 716 0
	movq	-24(%r12), %rbx
.LVL1066:
.LBE11337:
.LBE11336:
.LBB11341:
.LBB11342:
	.file 33 "/usr/include/c++/4.8/bits/char_traits.h"
	.loc 33 255 0
	movq	%r12, %rsi
	cmpq	%rbx, %r14
	movq	%rbx, %rbp
	cmovbe	%r14, %rbp
.LVL1067:
	movq	%rbp, %rdx
	call	memcmp
.LVL1068:
.LBE11342:
.LBE11341:
	.loc 17 2232 0
	testl	%eax, %eax
	jne	.L692
.LVL1069:
.LBB11343:
.LBB11335:
	.loc 17 409 0
	movq	%r14, %rax
	subq	%rbx, %rax
.LVL1070:
	.loc 17 411 0
	cmpq	$2147483647, %rax
	jle	.L718
.LVL1071:
.L693:
.LBE11335:
.LBE11343:
.LBE11344:
.LBE11345:
.LBE11346:
.LBE11347:
.LBE11365:
.LBE11370:
.LBE11457:
	.loc 32 1323 0
	movq	24(%r15), %rax
.LVL1072:
	xorl	%esi, %esi
.LVL1073:
.LBB11458:
.LBB11371:
.LBB11366:
	.loc 32 1321 0
	testq	%rax, %rax
	jne	.L719
.LVL1074:
.L696:
	.loc 32 1328 0
	testb	%sil, %sil
	movq	%rbp, %rdx
	movq	%r15, %rbp
	jne	.L691
.LVL1075:
.L698:
.LBB11348:
.LBB11349:
.LBB11350:
.LBB11351:
.LBB11352:
.LBB11353:
	.loc 33 255 0
	movq	8(%rsp), %rsi
	movq	%r12, %rdi
	call	memcmp
.LVL1076:
.LBE11353:
.LBE11352:
	.loc 17 2232 0
	testl	%eax, %eax
	jne	.L700
.LVL1077:
.LBB11354:
.LBB11355:
	.loc 17 409 0
	subq	%r14, %rbx
.LVL1078:
	.loc 17 411 0
	cmpq	$2147483647, %rbx
	jle	.L720
.LVL1079:
.L701:
.LBE11355:
.LBE11354:
.LBE11351:
.LBE11350:
.LBE11349:
.LBE11348:
.LBE11366:
.LBE11371:
.LBE11458:
	.loc 32 1385 0
	addq	$40, %rsp
	.cfi_remember_state
	.cfi_def_cfa_offset 56
.LBB11459:
	.loc 32 1384 0
	movq	%r15, %rax
	xorl	%edx, %edx
.LBE11459:
	.loc 32 1385 0
	popq	%rbx
	.cfi_def_cfa_offset 48
	popq	%rbp
	.cfi_def_cfa_offset 40
.LVL1080:
	popq	%r12
	.cfi_def_cfa_offset 32
.LVL1081:
	popq	%r13
	.cfi_def_cfa_offset 24
.LVL1082:
	popq	%r14
	.cfi_def_cfa_offset 16
.LVL1083:
	popq	%r15
	.cfi_def_cfa_offset 8
.LVL1084:
	ret
.LVL1085:
	.p2align 4,,10
	.p2align 3
.L720:
	.cfi_restore_state
.LBB11460:
.LBB11372:
.LBB11367:
.LBB11361:
.LBB11360:
.LBB11359:
.LBB11358:
.LBB11357:
.LBB11356:
	.loc 17 413 0
	cmpq	$-2147483648, %rbx
	jl	.L702
	.loc 17 416 0
	movl	%ebx, %eax
.LVL1086:
.L700:
.LBE11356:
.LBE11357:
.LBE11358:
.LBE11359:
.LBE11360:
.LBE11361:
	.loc 32 1335 0
	testl	%eax, %eax
	jns	.L701
.LVL1087:
	.p2align 4,,10
	.p2align 3
.L702:
.LBE11367:
.LBE11372:
	.loc 32 1379 0
	testq	%rbp, %rbp
	jne	.L699
	xorl	%r15d, %r15d
.LVL1088:
	jmp	.L701
.LVL1089:
	.p2align 4,,10
	.p2align 3
.L707:
	movq	%rax, %r15
.LVL1090:
	.p2align 4,,10
	.p2align 3
.L691:
.LBE11460:
	.loc 32 1315 0
	movq	16(%rsp), %rax
	movq	24(%rax), %rbp
.LVL1091:
.LBB11461:
.LBB11373:
.LBB11368:
	.loc 32 1330 0
	cmpq	%r15, %rbp
	je	.L699
.LVL1092:
.LBB11362:
.LBB11363:
	.loc 32 204 0
	movq	%r15, %rdi
	movq	%r15, %rbp
.LVL1093:
	call	_ZSt18_Rb_tree_decrementPSt18_Rb_tree_node_base
.LVL1094:
	movq	0(%r13), %rcx
	movq	32(%rax), %r12
	movq	%rax, %r15
.LVL1095:
	movq	-24(%rcx), %r14
	movq	-24(%r12), %rbx
	movq	%rcx, 8(%rsp)
	cmpq	%rbx, %r14
	movq	%rbx, %rdx
	cmovbe	%r14, %rdx
	jmp	.L698
.LVL1096:
.L699:
.LBE11363:
.LBE11362:
.LBE11368:
.LBE11373:
.LBB11374:
.LBB11375:
	.loc 32 1021 0
	cmpq	%rbp, 24(%rsp)
	je	.L709
.LVL1097:
.LBB11376:
.LBB11377:
.LBB11378:
.LBB11379:
.LBB11380:
.LBB11381:
.LBB11382:
.LBB11383:
.LBB11384:
	.loc 17 293 0
	movq	0(%r13), %rdi
.LBE11384:
.LBE11383:
.LBE11382:
.LBE11381:
.LBE11380:
.LBB11386:
.LBB11387:
.LBB11388:
.LBB11389:
.LBB11390:
	movq	32(%rbp), %rsi
.LBE11390:
.LBE11389:
.LBE11388:
.LBE11387:
.LBE11386:
.LBB11392:
.LBB11385:
	.loc 17 716 0
	movq	-24(%rdi), %r12
.LVL1098:
.LBE11385:
.LBE11392:
.LBB11393:
.LBB11391:
	movq	-24(%rsi), %rbx
.LVL1099:
	movq	%r12, %rdx
	cmpq	%r12, %rbx
	cmovbe	%rbx, %rdx
.LBE11391:
.LBE11393:
.LBB11394:
.LBB11395:
	.loc 33 255 0
	call	memcmp
.LVL1100:
.LBE11395:
.LBE11394:
	.loc 17 2232 0
	testl	%eax, %eax
	jne	.L704
.LVL1101:
.LBB11396:
.LBB11397:
	.loc 17 409 0
	movq	%r12, %rax
	.loc 17 411 0
	xorl	%r12d, %r12d
.LVL1102:
	.loc 17 409 0
	subq	%rbx, %rax
.LVL1103:
	.loc 17 411 0
	cmpq	$2147483647, %rax
	jle	.L721
.LVL1104:
.L703:
.LBE11397:
.LBE11396:
.LBE11379:
.LBE11378:
.LBE11377:
.LBE11376:
.LBB11403:
.LBB11404:
.LBB11405:
.LBB11406:
.LBB11407:
	.loc 4 104 0
	movl	$80, %edi
	call	_Znwm
.LVL1105:
.LBE11407:
.LBE11406:
.LBE11405:
.LBB11410:
.LBB11411:
.LBB11412:
.LBB11413:
	.loc 4 120 0
	testq	%rax, %rax
.LBE11413:
.LBE11412:
.LBE11411:
.LBE11410:
.LBB11449:
.LBB11409:
.LBB11408:
	.loc 4 104 0
	movq	%rax, %rbx
.LVL1106:
.LBE11408:
.LBE11409:
.LBE11449:
.LBB11450:
.LBB11448:
.LBB11447:
.LBB11446:
	.loc 4 120 0
	je	.L705
.LVL1107:
.LBB11414:
.LBB11415:
	.loc 32 140 0
	movq	$0, 8(%rax)
	movq	$0, 16(%rax)
	movq	$0, 24(%rax)
.LVL1108:
	movl	$0, (%rax)
.LBB11416:
.LBB11417:
.LBB11418:
.LBB11419:
	.loc 17 272 0
	movq	0(%r13), %rax
.LVL1109:
	movq	%rax, 32(%rbx)
.LVL1110:
.LBE11419:
.LBE11418:
.LBE11417:
.LBB11422:
.LBB11423:
.LBB11424:
.LBB11425:
.LBB11426:
	movq	8(%r13), %rax
.LBE11426:
.LBE11425:
.LBE11424:
.LBE11423:
.LBE11422:
.LBB11444:
.LBB11420:
.LBB11421:
	.loc 17 297 0
	movq	$_ZNSs4_Rep20_S_empty_rep_storageE+24, 0(%r13)
.LVL1111:
.LBE11421:
.LBE11420:
.LBE11444:
.LBB11445:
.LBB11443:
.LBB11431:
.LBB11428:
.LBB11427:
	.loc 17 272 0
	movq	%rax, 40(%rbx)
.LVL1112:
.LBE11427:
.LBE11428:
.LBB11429:
.LBB11430:
	.loc 17 297 0
	movq	$_ZNSs4_Rep20_S_empty_rep_storageE+24, 8(%r13)
.LVL1113:
.LBE11430:
.LBE11429:
.LBE11431:
.LBB11432:
.LBB11433:
.LBB11434:
.LBB11435:
	.loc 21 97 0
	movq	$0, 56(%rbx)
	movq	$0, 64(%rbx)
.LVL1114:
	movq	$0, 48(%rbx)
.LBE11435:
.LBE11434:
.LBB11436:
.LBB11437:
.LBB11438:
	.loc 15 176 0
	movq	16(%r13), %rax
	movq	%rax, 48(%rbx)
.LVL1115:
	.loc 15 177 0
	movq	$0, 16(%r13)
.LVL1116:
.LBE11438:
.LBE11437:
.LBB11439:
.LBB11440:
	.loc 15 176 0
	movq	24(%r13), %rdx
	.loc 15 175 0
	movq	56(%rbx), %rax
.LVL1117:
	.loc 15 176 0
	movq	%rdx, 56(%rbx)
.LVL1118:
	.loc 15 177 0
	movq	%rax, 24(%r13)
.LVL1119:
.LBE11440:
.LBE11439:
.LBB11441:
.LBB11442:
	.loc 15 176 0
	movq	32(%r13), %rdx
	.loc 15 175 0
	movq	64(%rbx), %rax
.LVL1120:
	.loc 15 176 0
	movq	%rdx, 64(%rbx)
.LVL1121:
	.loc 15 177 0
	movq	%rax, 32(%r13)
.LBE11442:
.LBE11441:
.LBE11436:
.LBE11433:
.LBE11432:
	.loc 20 70 0
	movl	40(%r13), %eax
.LVL1122:
	movl	%eax, 72(%rbx)
	movl	44(%r13), %eax
	movl	%eax, 76(%rbx)
.LVL1123:
.L705:
.LBE11443:
.LBE11445:
.LBE11416:
.LBE11415:
.LBE11414:
.LBE11446:
.LBE11447:
.LBE11448:
.LBE11450:
.LBE11404:
.LBE11403:
	.loc 32 1025 0
	movq	24(%rsp), %rcx
	movq	%rbp, %rdx
	movq	%rbx, %rsi
	movl	%r12d, %edi
	call	_ZSt29_Rb_tree_insert_and_rebalancebPSt18_Rb_tree_node_baseS0_RS_
.LVL1124:
	.loc 32 1027 0
	movq	16(%rsp), %rax
.LBE11375:
.LBE11374:
	.loc 32 1382 0
	movl	$1, %edx
.LBB11454:
.LBB11452:
	.loc 32 1027 0
	addq	$1, 40(%rax)
.LVL1125:
.LBE11452:
.LBE11454:
.LBE11461:
	.loc 32 1385 0
	addq	$40, %rsp
	.cfi_remember_state
	.cfi_def_cfa_offset 56
.LBB11462:
	.loc 32 1382 0
	movq	%rbx, %rax
.LBE11462:
	.loc 32 1385 0
	popq	%rbx
	.cfi_def_cfa_offset 48
.LVL1126:
	popq	%rbp
	.cfi_def_cfa_offset 40
.LVL1127:
	popq	%r12
	.cfi_def_cfa_offset 32
	popq	%r13
	.cfi_def_cfa_offset 24
.LVL1128:
	popq	%r14
	.cfi_def_cfa_offset 16
	popq	%r15
	.cfi_def_cfa_offset 8
.LVL1129:
	ret
.LVL1130:
.L721:
	.cfi_restore_state
.LBB11463:
.LBB11455:
.LBB11453:
.LBB11451:
.LBB11402:
.LBB11401:
.LBB11400:
.LBB11399:
.LBB11398:
	.loc 17 413 0
	cmpq	$-2147483648, %rax
	movb	$1, %r12b
	jl	.L703
.LVL1131:
.L704:
	shrl	$31, %eax
.LVL1132:
	movl	%eax, %r12d
	jmp	.L703
.LVL1133:
.L709:
.LBE11398:
.LBE11399:
.LBE11400:
.LBE11401:
.LBE11402:
.LBE11451:
	.loc 32 1021 0
	movl	$1, %r12d
	jmp	.L703
.LBE11453:
.LBE11455:
.LBE11463:
	.cfi_endproc
.LFE6036:
	.size	_ZNSt8_Rb_treeISsSt4pairIKSs4PathESt10_Select1stIS3_ESt4lessISsESaIS3_EE16_M_insert_uniqueIS0_ISsS2_EEES0_ISt17_Rb_tree_iteratorIS3_EbEOT_, .-_ZNSt8_Rb_treeISsSt4pairIKSs4PathESt10_Select1stIS3_ESt4lessISsESaIS3_EE16_M_insert_uniqueIS0_ISsS2_EEES0_ISt17_Rb_tree_iteratorIS3_EbEOT_
	.section	.text._ZNSt8_Rb_treeISsSt4pairIKSs4PathESt10_Select1stIS3_ESt4lessISsESaIS3_EE8_M_eraseEPSt13_Rb_tree_nodeIS3_E,"axG",@progbits,_ZNSt8_Rb_treeISsSt4pairIKSs4PathESt10_Select1stIS3_ESt4lessISsESaIS3_EE8_M_eraseEPSt13_Rb_tree_nodeIS3_E,comdat
	.align 2
	.p2align 4,,15
	.weak	_ZNSt8_Rb_treeISsSt4pairIKSs4PathESt10_Select1stIS3_ESt4lessISsESaIS3_EE8_M_eraseEPSt13_Rb_tree_nodeIS3_E
	.type	_ZNSt8_Rb_treeISsSt4pairIKSs4PathESt10_Select1stIS3_ESt4lessISsESaIS3_EE8_M_eraseEPSt13_Rb_tree_nodeIS3_E, @function
_ZNSt8_Rb_treeISsSt4pairIKSs4PathESt10_Select1stIS3_ESt4lessISsESaIS3_EE8_M_eraseEPSt13_Rb_tree_nodeIS3_E:
.LFB6047:
	.loc 32 1119 0
	.cfi_startproc
.LVL1134:
	pushq	%r15
	.cfi_def_cfa_offset 16
	.cfi_offset 15, -16
	pushq	%r14
	.cfi_def_cfa_offset 24
	.cfi_offset 14, -24
	pushq	%r13
	.cfi_def_cfa_offset 32
	.cfi_offset 13, -32
	pushq	%r12
	.cfi_def_cfa_offset 40
	.cfi_offset 12, -40
	movq	%rsi, %r12
	pushq	%rbp
	.cfi_def_cfa_offset 48
	.cfi_offset 6, -48
	pushq	%rbx
	.cfi_def_cfa_offset 56
	.cfi_offset 3, -56
	subq	$40, %rsp
	.cfi_def_cfa_offset 96
.LBB11543:
	.loc 32 1123 0
	testq	%rsi, %rsi
.LBE11543:
	.loc 32 1119 0
	movq	%rdi, 8(%rsp)
.LBB11685:
	.loc 32 1123 0
	je	.L722
.LVL1135:
	.p2align 4,,10
	.p2align 3
.L757:
.LBB11544:
	.loc 32 1125 0
	movq	24(%r12), %rsi
	call	_ZNSt8_Rb_treeISsSt4pairIKSs4PathESt10_Select1stIS3_ESt4lessISsESaIS3_EE8_M_eraseEPSt13_Rb_tree_nodeIS3_E
.LVL1136:
.LBB11545:
.LBB11546:
.LBB11547:
.LBB11548:
.LBB11549:
.LBB11550:
.LBB11551:
	.loc 21 416 0
	movq	56(%r12), %r14
	movq	48(%r12), %r13
.LBE11551:
.LBE11550:
.LBE11549:
.LBE11548:
.LBE11547:
.LBE11546:
.LBE11545:
.LBE11544:
.LBE11685:
	.loc 32 1120 0
	movq	16(%r12), %rbp
.LVL1137:
.LBB11686:
.LBB11682:
.LBB11680:
.LBB11675:
.LBB11673:
.LBB11671:
.LBB11641:
.LBB11612:
.LBB11609:
.LBB11552:
.LBB11553:
.LBB11554:
.LBB11555:
.LBB11556:
	.loc 22 102 0
	cmpq	%r13, %r14
	je	.L747
	movl	$_ZL28__gthrw___pthread_key_createPjPFvPvE, %eax
	movq	%r13, %rbx
	leaq	32(%r13), %r15
	testq	%rax, %rax
	je	.L729
.LVL1138:
	.p2align 4,,10
	.p2align 3
.L733:
	movq	%rbx, %rax
	subq	%r13, %rax
.LBB11557:
.LBB11558:
.LBB11559:
.LBB11560:
.LBB11561:
.LBB11562:
.LBB11563:
.LBB11564:
	.loc 17 293 0
	movq	(%r15,%rax), %rax
.LBE11564:
.LBE11563:
.LBE11562:
.LBE11561:
	.loc 17 539 0
	leaq	-24(%rax), %rdi
.LVL1139:
.LBB11568:
.LBB11569:
	.loc 17 240 0
	cmpq	$_ZNSs4_Rep20_S_empty_rep_storageE, %rdi
	jne	.L759
.LVL1140:
.L731:
.LBE11569:
.LBE11568:
.LBE11560:
.LBE11559:
.LBE11558:
.LBE11557:
	.loc 22 102 0
	addq	$40, %rbx
.LVL1141:
	cmpq	%rbx, %r14
	jne	.L733
.LVL1142:
.L728:
	movq	48(%r12), %rdi
.LVL1143:
.L724:
.LBE11556:
.LBE11555:
.LBE11554:
.LBE11553:
.LBE11552:
.LBB11602:
.LBB11603:
.LBB11604:
	.loc 21 173 0
	testq	%rdi, %rdi
	je	.L734
.LVL1144:
.LBB11605:
.LBB11606:
	.loc 4 110 0
	call	_ZdlPv
.LVL1145:
.L734:
.LBE11606:
.LBE11605:
.LBE11604:
.LBE11603:
.LBE11602:
.LBE11609:
.LBE11612:
.LBB11613:
.LBB11614:
.LBB11615:
.LBB11616:
.LBB11617:
.LBB11618:
	.loc 17 293 0
	movq	40(%r12), %rax
.LBE11618:
.LBE11617:
.LBE11616:
.LBE11615:
	.loc 17 539 0
	leaq	-24(%rax), %rdi
.LVL1146:
.LBB11619:
.LBB11620:
	.loc 17 240 0
	cmpq	$_ZNSs4_Rep20_S_empty_rep_storageE, %rdi
	jne	.L760
.LVL1147:
.L736:
.LBE11620:
.LBE11619:
.LBE11614:
.LBE11613:
.LBE11641:
.LBB11642:
.LBB11643:
.LBB11644:
.LBB11645:
.LBB11646:
.LBB11647:
	.loc 17 293 0
	movq	32(%r12), %rax
.LBE11647:
.LBE11646:
.LBE11645:
.LBE11644:
	.loc 17 539 0
	leaq	-24(%rax), %rdi
.LVL1148:
.LBB11648:
.LBB11649:
	.loc 17 240 0
	cmpq	$_ZNSs4_Rep20_S_empty_rep_storageE, %rdi
	jne	.L761
.LVL1149:
.L741:
.LBE11649:
.LBE11648:
.LBE11643:
.LBE11642:
.LBE11671:
.LBE11673:
.LBE11675:
.LBB11676:
.LBB11677:
.LBB11678:
	.loc 4 110 0
	movq	%r12, %rdi
	call	_ZdlPv
.LVL1150:
.LBE11678:
.LBE11677:
.LBE11676:
.LBE11680:
.LBE11682:
	.loc 32 1123 0
	testq	%rbp, %rbp
	je	.L722
.LBB11683:
	.loc 32 1128 0
	movq	%rbp, %r12
.LVL1151:
	movq	8(%rsp), %rdi
	jmp	.L757
.LVL1152:
.L722:
.LBE11683:
.LBE11686:
	.loc 32 1130 0
	addq	$40, %rsp
	.cfi_remember_state
	.cfi_def_cfa_offset 56
	popq	%rbx
	.cfi_def_cfa_offset 48
	popq	%rbp
	.cfi_def_cfa_offset 40
	popq	%r12
	.cfi_def_cfa_offset 32
	popq	%r13
	.cfi_def_cfa_offset 24
	popq	%r14
	.cfi_def_cfa_offset 16
	popq	%r15
	.cfi_def_cfa_offset 8
	ret
.LVL1153:
.L747:
	.cfi_restore_state
.LBB11687:
.LBB11684:
.LBB11681:
.LBB11679:
.LBB11674:
.LBB11672:
.LBB11666:
.LBB11637:
.LBB11610:
.LBB11607:
.LBB11600:
.LBB11598:
.LBB11596:
.LBB11594:
	.loc 22 102 0
	movq	%r14, %rdi
	jmp	.L724
.LVL1154:
.L759:
.LBB11592:
.LBB11590:
.LBB11588:
.LBB11586:
.LBB11582:
.LBB11579:
.LBB11570:
.LBB11571:
.LBB11572:
	.loc 19 49 0
	movl	$-1, %esi
	lock xaddl	%esi, -8(%rax)
.LBE11572:
.LBE11571:
.LBE11570:
	.loc 17 245 0
	testl	%esi, %esi
	jg	.L731
	.loc 17 249 0
	leaq	31(%rsp), %rsi
.LVL1155:
	call	_ZNSs4_Rep10_M_destroyERKSaIcE
.LVL1156:
	jmp	.L731
.LVL1157:
.L729:
	movq	%rbx, %rax
	subq	%r13, %rax
.LBE11579:
.LBE11582:
.LBB11583:
.LBB11567:
.LBB11566:
.LBB11565:
	.loc 17 293 0
	movq	(%r15,%rax), %rax
.LBE11565:
.LBE11566:
.LBE11567:
.LBE11583:
	.loc 17 539 0
	leaq	-24(%rax), %rdi
.LVL1158:
.LBB11584:
.LBB11580:
	.loc 17 240 0
	cmpq	$_ZNSs4_Rep20_S_empty_rep_storageE, %rdi
	jne	.L762
.LVL1159:
.L727:
.LBE11580:
.LBE11584:
.LBE11586:
.LBE11588:
.LBE11590:
.LBE11592:
	.loc 22 102 0
	addq	$40, %rbx
.LVL1160:
	cmpq	%rbx, %r14
	jne	.L729
	jmp	.L728
.LVL1161:
.L761:
.LBE11594:
.LBE11596:
.LBE11598:
.LBE11600:
.LBE11607:
.LBE11610:
.LBE11637:
.LBE11666:
.LBB11667:
.LBB11664:
.LBB11662:
.LBB11660:
.LBB11650:
.LBB11651:
	.loc 19 81 0
	movl	$_ZL28__gthrw___pthread_key_createPjPFvPvE, %esi
.LBE11651:
.LBE11650:
	.loc 17 246 0
	leaq	16(%rdi), %rdx
.LVL1162:
.LBB11658:
.LBB11656:
	.loc 19 81 0
	testq	%rsi, %rsi
	je	.L742
.LVL1163:
.LBB11652:
.LBB11653:
	.loc 19 49 0
	movl	$-1, %eax
	lock xaddl	%eax, (%rdx)
.LVL1164:
.L743:
.LBE11653:
.LBE11652:
.LBE11656:
.LBE11658:
	.loc 17 245 0
	testl	%eax, %eax
	jg	.L741
	.loc 17 249 0
	leaq	31(%rsp), %rsi
.LVL1165:
	call	_ZNSs4_Rep10_M_destroyERKSaIcE
.LVL1166:
	jmp	.L741
.LVL1167:
.L760:
.LBE11660:
.LBE11662:
.LBE11664:
.LBE11667:
.LBB11668:
.LBB11638:
.LBB11635:
.LBB11633:
.LBB11631:
.LBB11621:
.LBB11622:
	.loc 19 81 0
	movl	$_ZL28__gthrw___pthread_key_createPjPFvPvE, %esi
.LBE11622:
.LBE11621:
	.loc 17 246 0
	leaq	16(%rdi), %rdx
.LVL1168:
.LBB11629:
.LBB11627:
	.loc 19 81 0
	testq	%rsi, %rsi
	je	.L737
.LVL1169:
.LBB11623:
.LBB11624:
	.loc 19 49 0
	movl	$-1, %eax
	lock xaddl	%eax, (%rdx)
.LVL1170:
.L738:
.LBE11624:
.LBE11623:
.LBE11627:
.LBE11629:
	.loc 17 245 0
	testl	%eax, %eax
	jg	.L736
	.loc 17 249 0
	leaq	31(%rsp), %rsi
.LVL1171:
	call	_ZNSs4_Rep10_M_destroyERKSaIcE
.LVL1172:
	jmp	.L736
.LVL1173:
.L762:
.LBE11631:
.LBE11633:
.LBE11635:
.LBE11638:
.LBB11639:
.LBB11611:
.LBB11608:
.LBB11601:
.LBB11599:
.LBB11597:
.LBB11595:
.LBB11593:
.LBB11591:
.LBB11589:
.LBB11587:
.LBB11585:
.LBB11581:
.LBB11577:
.LBB11573:
.LBB11574:
	.loc 19 67 0
	movl	-8(%rax), %edx
.LVL1174:
	.loc 19 68 0
	leal	-1(%rdx), %esi
.LBE11574:
.LBE11573:
.LBE11577:
	.loc 17 245 0
	testl	%edx, %edx
.LBB11578:
.LBB11576:
.LBB11575:
	.loc 19 68 0
	movl	%esi, -8(%rax)
.LBE11575:
.LBE11576:
.LBE11578:
	.loc 17 245 0
	jg	.L727
	.loc 17 249 0
	leaq	31(%rsp), %rsi
.LVL1175:
	call	_ZNSs4_Rep10_M_destroyERKSaIcE
.LVL1176:
	jmp	.L727
.LVL1177:
.L742:
.LBE11581:
.LBE11585:
.LBE11587:
.LBE11589:
.LBE11591:
.LBE11593:
.LBE11595:
.LBE11597:
.LBE11599:
.LBE11601:
.LBE11608:
.LBE11611:
.LBE11639:
.LBE11668:
.LBB11669:
.LBB11665:
.LBB11663:
.LBB11661:
.LBB11659:
.LBB11657:
.LBB11654:
.LBB11655:
	.loc 19 67 0
	movl	-8(%rax), %edx
.LVL1178:
	.loc 19 68 0
	leal	-1(%rdx), %esi
	movl	%esi, -8(%rax)
.LBE11655:
.LBE11654:
	.loc 19 84 0
	movl	%edx, %eax
	jmp	.L743
.LVL1179:
.L737:
.LBE11657:
.LBE11659:
.LBE11661:
.LBE11663:
.LBE11665:
.LBE11669:
.LBB11670:
.LBB11640:
.LBB11636:
.LBB11634:
.LBB11632:
.LBB11630:
.LBB11628:
.LBB11625:
.LBB11626:
	.loc 19 67 0
	movl	-8(%rax), %edx
.LVL1180:
	.loc 19 68 0
	leal	-1(%rdx), %esi
	movl	%esi, -8(%rax)
.LBE11626:
.LBE11625:
	.loc 19 84 0
	movl	%edx, %eax
	jmp	.L738
.LBE11628:
.LBE11630:
.LBE11632:
.LBE11634:
.LBE11636:
.LBE11640:
.LBE11670:
.LBE11672:
.LBE11674:
.LBE11679:
.LBE11681:
.LBE11684:
.LBE11687:
	.cfi_endproc
.LFE6047:
	.size	_ZNSt8_Rb_treeISsSt4pairIKSs4PathESt10_Select1stIS3_ESt4lessISsESaIS3_EE8_M_eraseEPSt13_Rb_tree_nodeIS3_E, .-_ZNSt8_Rb_treeISsSt4pairIKSs4PathESt10_Select1stIS3_ESt4lessISsESaIS3_EE8_M_eraseEPSt13_Rb_tree_nodeIS3_E
	.section	.text._ZNSt6vectorI4PathSaIS0_EE19_M_emplace_back_auxIIRKS0_EEEvDpOT_,"axG",@progbits,_ZNSt6vectorI4PathSaIS0_EE19_M_emplace_back_auxIIRKS0_EEEvDpOT_,comdat
	.align 2
	.p2align 4,,15
	.weak	_ZNSt6vectorI4PathSaIS0_EE19_M_emplace_back_auxIIRKS0_EEEvDpOT_
	.type	_ZNSt6vectorI4PathSaIS0_EE19_M_emplace_back_auxIIRKS0_EEEvDpOT_, @function
_ZNSt6vectorI4PathSaIS0_EE19_M_emplace_back_auxIIRKS0_EEEvDpOT_:
.LFB6072:
	.loc 26 399 0
	.cfi_startproc
	.cfi_personality 0x3,__gxx_personality_v0
	.cfi_lsda 0x3,.LLSDA6072
.LVL1181:
	pushq	%r15
	.cfi_def_cfa_offset 16
	.cfi_offset 15, -16
.LBB11871:
.LBB11872:
.LBB11873:
.LBB11874:
.LBB11875:
	.loc 21 646 0
	movabsq	$-3689348814741910323, %rdx
.LBE11875:
.LBE11874:
.LBE11873:
.LBE11872:
.LBE11871:
	.loc 26 399 0
	pushq	%r14
	.cfi_def_cfa_offset 24
	.cfi_offset 14, -24
	movq	%rsi, %r14
	pushq	%r13
	.cfi_def_cfa_offset 32
	.cfi_offset 13, -32
	pushq	%r12
	.cfi_def_cfa_offset 40
	.cfi_offset 12, -40
	pushq	%rbp
	.cfi_def_cfa_offset 48
	.cfi_offset 6, -48
	pushq	%rbx
	.cfi_def_cfa_offset 56
	.cfi_offset 3, -56
	subq	$88, %rsp
	.cfi_def_cfa_offset 144
.LBB12241:
.LBB11886:
.LBB11882:
.LBB11878:
.LBB11876:
	.loc 21 646 0
	movq	8(%rdi), %rax
	subq	(%rdi), %rax
.LBE11876:
.LBE11878:
.LBE11882:
.LBE11886:
.LBE12241:
	.loc 26 399 0
	movq	%rdi, 8(%rsp)
.LBB12242:
.LBB11887:
.LBB11883:
.LBB11879:
.LBB11877:
	.loc 21 646 0
	sarq	$3, %rax
	imulq	%rdx, %rax
.LVL1182:
.LBE11877:
.LBE11879:
.LBB11880:
.LBB11881:
	.file 34 "/usr/include/c++/4.8/bits/stl_algobase.h"
	.loc 34 221 0
	testq	%rax, %rax
	je	.L810
.LBE11881:
.LBE11880:
	.loc 21 1341 0
	leaq	(%rax,%rax), %rdx
.LVL1183:
	.loc 21 1342 0
	cmpq	%rdx, %rax
	jbe	.L838
	movabsq	$461168601842738790, %rax
	movq	$-16, %rdi
.LVL1184:
	movq	%rax, 32(%rsp)
.L765:
.LVL1185:
.LEHB39:
.LBE11883:
.LBE11887:
.LBB11888:
.LBB11889:
.LBB11890:
	.loc 4 104 0
	call	_Znwm
.LEHE39:
.LVL1186:
	movq	8(%rsp), %rsi
	movq	%rax, 16(%rsp)
	movq	8(%rsi), %r8
.LVL1187:
	movq	(%rsi), %rdi
	movq	%r8, %r13
	subq	%rdi, %r13
.LBE11890:
.LBE11889:
.LBE11888:
	.loc 26 409 0
	andq	$-8, %r13
.LVL1188:
.LBB11891:
.LBB11892:
.LBB11893:
.LBB11894:
	.loc 4 120 0
	addq	%rax, %r13
.LVL1189:
	je	.L766
.LVL1190:
.LBB11895:
.LBB11896:
	.loc 20 70 0
	movq	%r14, %rsi
	movq	%r13, %rdi
.LEHB40:
	call	_ZNSsC1ERKSs
.LEHE40:
.LVL1191:
.LBB11897:
.LBB11898:
.LBB11899:
.LBB11900:
	.loc 21 646 0
	movq	16(%r14), %rax
	subq	8(%r14), %rax
	movabsq	$-3689348814741910323, %rdx
.LBE11900:
.LBE11899:
.LBB11902:
.LBB11903:
.LBB11904:
.LBB11905:
.LBB11906:
	.loc 21 168 0
	xorl	%ebx, %ebx
	xorl	%r15d, %r15d
.LBE11906:
.LBE11905:
.LBE11904:
.LBE11903:
.LBB11920:
.LBB11921:
	.loc 21 91 0
	movq	$0, 8(%r13)
	movq	$0, 16(%r13)
	movq	$0, 24(%r13)
.LBE11921:
.LBE11920:
.LBE11902:
.LBB11925:
.LBB11901:
	.loc 21 646 0
	sarq	$3, %rax
	imulq	%rax, %rdx
.LVL1192:
.LBE11901:
.LBE11925:
.LBB11926:
.LBB11922:
.LBB11917:
.LBB11914:
.LBB11911:
	.loc 21 168 0
	testq	%rdx, %rdx
	jne	.L839
.LVL1193:
.L767:
.LBE11911:
.LBE11914:
	.loc 21 183 0
	addq	%r15, %rbx
	.loc 21 181 0
	movq	%r15, 8(%r13)
	.loc 21 182 0
	movq	%r15, 16(%r13)
	.loc 21 183 0
	movq	%rbx, 24(%r13)
.LVL1194:
.LBE11917:
.LBE11922:
.LBE11926:
.LBE11898:
.LBE11897:
.LBE11896:
.LBE11895:
.LBE11894:
.LBE11893:
.LBE11892:
.LBE11891:
.LBE12242:
	.loc 21 310 0
	movq	16(%r14), %r12
.LVL1195:
.LBB12243:
.LBB12026:
.LBB12019:
.LBB12012:
.LBB12005:
.LBB11998:
.LBB11991:
.LBB11982:
.LBB11975:
.LBB11927:
.LBB11928:
.LBB11929:
.LBB11930:
.LBB11931:
	.loc 27 74 0
	movq	%r15, %rbx
.LBE11931:
.LBE11930:
.LBE11929:
.LBE11928:
.LBE11927:
.LBE11975:
.LBE11982:
.LBE11991:
.LBE11998:
.LBE12005:
.LBE12012:
.LBE12019:
.LBE12026:
.LBE12243:
	.loc 21 310 0
	movq	8(%r14), %rbp
.LVL1196:
.LBB12244:
.LBB12027:
.LBB12020:
.LBB12013:
.LBB12006:
.LBB11999:
.LBB11992:
.LBB11983:
.LBB11976:
.LBB11964:
.LBB11961:
.LBB11958:
.LBB11955:
.LBB11952:
	.loc 27 74 0
	cmpq	%rbp, %r12
	je	.L769
.LVL1197:
	.p2align 4,,10
	.p2align 3
.L773:
.LBB11932:
.LBB11933:
	.loc 22 75 0
	testq	%rbx, %rbx
	je	.L772
.LVL1198:
.LBB11934:
.LBB11935:
	.loc 20 25 0
	movsd	0(%rbp), %xmm0
	leaq	32(%rbp), %rsi
	leaq	32(%rbx), %rdi
	movsd	%xmm0, (%rbx)
	movsd	8(%rbp), %xmm0
	movsd	%xmm0, 8(%rbx)
	movl	16(%rbp), %eax
	movl	%eax, 16(%rbx)
	movq	24(%rbp), %rax
	movq	%rax, 24(%rbx)
.LEHB41:
	call	_ZNSsC1ERKSs
.LEHE41:
.LVL1199:
.L772:
	addq	$40, %rbp
.LBE11935:
.LBE11934:
.LBE11933:
.LBE11932:
	.loc 27 74 0
	addq	$40, %rbx
.LVL1200:
	cmpq	%rbp, %r12
	jne	.L773
.LVL1201:
.L769:
.LBE11952:
.LBE11955:
.LBE11958:
.LBE11961:
.LBE11964:
.LBE11976:
.LBE11983:
	.loc 20 70 0
	movl	32(%r14), %eax
.LBB11984:
.LBB11977:
	.loc 21 313 0
	movq	%rbx, 16(%r13)
.LBE11977:
.LBE11984:
	.loc 20 70 0
	movl	%eax, 32(%r13)
	movl	36(%r14), %eax
	movl	%eax, 36(%r13)
	movq	8(%rsp), %rax
	movq	8(%rax), %r8
	movq	(%rax), %rdi
.LVL1202:
.L766:
.LBE11992:
.LBE11999:
.LBE12006:
.LBE12013:
.LBE12020:
.LBE12027:
.LBB12028:
.LBB12029:
.LBB12030:
.LBB12031:
.LBB12032:
.LBB12033:
	.loc 27 74 0
	cmpq	%r8, %rdi
	je	.L783
	movq	16(%rsp), %r9
	movq	%rdi, %rax
	movq	%r9, %rdx
.LVL1203:
	.p2align 4,,10
	.p2align 3
.L786:
.LBB12034:
.LBB12035:
	.loc 22 75 0
	testq	%rdx, %rdx
	je	.L784
.LVL1204:
.LBB12036:
.LBB12037:
.LBB12038:
.LBB12039:
.LBB12040:
	.loc 17 272 0
	movq	(%rax), %rcx
	movq	%rdx, %rsi
	subq	%r9, %rsi
	movq	%rcx, (%rdx)
.LVL1205:
.LBE12040:
.LBE12039:
.LBB12041:
.LBB12042:
	.loc 17 297 0
	movq	$_ZNSs4_Rep20_S_empty_rep_storageE+24, (%rax)
.LVL1206:
.LBE12042:
.LBE12041:
.LBE12038:
.LBB12043:
.LBB12044:
.LBB12045:
.LBB12046:
	.loc 21 97 0
	movq	$0, 8(%rdx)
	movq	$0, 16(%rsi,%r9)
	movq	$0, 24(%rsi,%r9)
.LVL1207:
.LBE12046:
.LBE12045:
.LBB12047:
.LBB12048:
.LBB12049:
	.loc 15 176 0
	movq	8(%rax), %rcx
	movq	%rcx, 8(%rdx)
.LVL1208:
	.loc 15 177 0
	movq	$0, 8(%rax)
.LVL1209:
.LBE12049:
.LBE12048:
.LBB12050:
.LBB12051:
	.loc 15 176 0
	movq	16(%rax), %rsi
	.loc 15 175 0
	movq	16(%rdx), %rcx
.LVL1210:
	.loc 15 176 0
	movq	%rsi, 16(%rdx)
.LVL1211:
	.loc 15 177 0
	movq	%rcx, 16(%rax)
.LVL1212:
.LBE12051:
.LBE12050:
.LBB12052:
.LBB12053:
	.loc 15 176 0
	movq	24(%rax), %rsi
	.loc 15 175 0
	movq	24(%rdx), %rcx
.LVL1213:
	.loc 15 176 0
	movq	%rsi, 24(%rdx)
.LVL1214:
	.loc 15 177 0
	movq	%rcx, 24(%rax)
.LBE12053:
.LBE12052:
.LBE12047:
.LBE12044:
.LBE12043:
	.loc 20 70 0
	movl	32(%rax), %ecx
.LVL1215:
	movl	%ecx, 32(%rdx)
.LVL1216:
	movl	36(%rax), %ecx
	movl	%ecx, 36(%rdx)
.LVL1217:
.L784:
.LBE12037:
.LBE12036:
.LBE12035:
.LBE12034:
.LBB12054:
.LBB12055:
	.loc 25 972 0
	addq	$40, %rax
.LVL1218:
.LBE12055:
.LBE12054:
	.loc 27 74 0
	addq	$40, %rdx
.LVL1219:
	cmpq	%r8, %rax
	jne	.L786
.LVL1220:
	addq	$40, %rdi
.LVL1221:
.LBE12033:
.LBE12032:
.LBE12031:
.LBE12030:
.LBE12029:
.LBE12028:
	.loc 26 417 0
	movq	16(%rsp), %rsi
	subq	%rdi, %rax
.LVL1222:
	shrq	$3, %rax
	leaq	80(%rsi,%rax,8), %rax
	.loc 26 429 0
	movq	8(%rsp), %rsi
	.loc 26 417 0
	movq	%rax, 24(%rsp)
.LVL1223:
	.loc 26 429 0
	movq	8(%rsi), %rax
.LVL1224:
	movq	%rax, %r13
.LVL1225:
	movq	(%rsi), %rax
.LVL1226:
.LBB12056:
.LBB12057:
.LBB12058:
.LBB12059:
.LBB12060:
	.loc 22 102 0
	cmpq	%rax, %r13
	je	.L816
	leaq	8(%rax), %r12
	movq	%rax, %rbp
.LBB12061:
.LBB12062:
.LBB12063:
.LBB12064:
.LBB12065:
.LBB12066:
.LBB12067:
.LBB12068:
.LBB12069:
.LBB12070:
.LBB12071:
.LBB12072:
.LBB12073:
.LBB12074:
.LBB12075:
	.loc 17 249 0
	movq	%rax, %r14
.LVL1227:
	.p2align 4,,10
	.p2align 3
.L805:
	movq	%rbp, %r8
	subq	%r14, %r8
.LBE12075:
.LBE12074:
.LBE12073:
.LBE12072:
.LBE12071:
.LBE12070:
.LBE12069:
.LBE12068:
.LBE12067:
.LBE12066:
.LBE12065:
	.loc 21 416 0
	movq	8(%r8,%r12), %rdx
	movq	(%r8,%r12), %r15
.LVL1228:
.LBB12137:
.LBB12132:
.LBB12127:
.LBB12122:
.LBB12117:
	.loc 22 102 0
	cmpq	%r15, %rdx
	je	.L817
	movl	$_ZL28__gthrw___pthread_key_createPjPFvPvE, %eax
	movq	%r15, %rbx
	leaq	32(%r15), %rcx
	testq	%rax, %rax
	je	.L793
.LVL1229:
	.p2align 4,,10
	.p2align 3
.L797:
	movq	%rbx, %rax
	subq	%r15, %rax
.LBB12113:
.LBB12109:
.LBB12105:
.LBB12101:
.LBB12089:
.LBB12090:
.LBB12091:
.LBB12092:
	.loc 17 293 0
	movq	(%rcx,%rax), %rax
.LBE12092:
.LBE12091:
.LBE12090:
.LBE12089:
	.loc 17 539 0
	leaq	-24(%rax), %rdi
.LVL1230:
.LBB12096:
.LBB12085:
	.loc 17 240 0
	cmpq	$_ZNSs4_Rep20_S_empty_rep_storageE, %rdi
	jne	.L840
.LVL1231:
.L795:
.LBE12085:
.LBE12096:
.LBE12101:
.LBE12105:
.LBE12109:
.LBE12113:
	.loc 22 102 0
	addq	$40, %rbx
.LVL1232:
	cmpq	%rbx, %rdx
	jne	.L797
.LVL1233:
.L792:
	movq	(%r8,%r12), %rdi
.LVL1234:
.L788:
.LBE12117:
.LBE12122:
.LBE12127:
.LBE12132:
.LBE12137:
.LBB12138:
.LBB12139:
.LBB12140:
	.loc 21 173 0
	testq	%rdi, %rdi
	je	.L798
.LVL1235:
.LBB12141:
.LBB12142:
	.loc 4 110 0
	call	_ZdlPv
.LVL1236:
.L798:
.LBE12142:
.LBE12141:
.LBE12140:
.LBE12139:
.LBE12138:
.LBE12064:
.LBE12063:
.LBB12151:
.LBB12152:
.LBB12153:
.LBB12154:
.LBB12155:
.LBB12156:
	.loc 17 293 0
	movq	0(%rbp), %rax
.LBE12156:
.LBE12155:
.LBE12154:
.LBE12153:
	.loc 17 539 0
	leaq	-24(%rax), %rdi
.LVL1237:
.LBB12157:
.LBB12158:
	.loc 17 240 0
	cmpq	$_ZNSs4_Rep20_S_empty_rep_storageE, %rdi
	jne	.L841
.LVL1238:
.L800:
.LBE12158:
.LBE12157:
.LBE12152:
.LBE12151:
.LBE12062:
.LBE12061:
	.loc 22 102 0
	addq	$40, %rbp
	cmpq	%rbp, %r13
	jne	.L805
	movq	8(%rsp), %rax
	movq	(%rax), %rdi
.LVL1239:
.L787:
.LBE12060:
.LBE12059:
.LBE12058:
.LBE12057:
.LBE12056:
.LBB12215:
.LBB12216:
	.loc 21 173 0
	testq	%rdi, %rdi
	je	.L806
.LVL1240:
.LBB12217:
.LBB12218:
	.loc 4 110 0
	call	_ZdlPv
.LVL1241:
.L806:
.LBE12218:
.LBE12217:
.LBE12216:
.LBE12215:
	.loc 26 433 0
	movq	8(%rsp), %rax
	movq	16(%rsp), %rdx
	.loc 26 434 0
	movq	24(%rsp), %rcx
	.loc 26 433 0
	movq	%rdx, (%rax)
	.loc 26 434 0
	movq	%rax, %rsi
	movq	%rcx, 8(%rax)
	.loc 26 435 0
	movq	32(%rsp), %rax
	leaq	(%rax,%rax,4), %rax
	leaq	(%rdx,%rax,8), %rax
	movq	%rax, 16(%rsi)
.LBE12244:
	.loc 26 436 0
	addq	$88, %rsp
	.cfi_remember_state
	.cfi_def_cfa_offset 56
	popq	%rbx
	.cfi_def_cfa_offset 48
	popq	%rbp
	.cfi_def_cfa_offset 40
	popq	%r12
	.cfi_def_cfa_offset 32
	popq	%r13
	.cfi_def_cfa_offset 24
	popq	%r14
	.cfi_def_cfa_offset 16
	popq	%r15
	.cfi_def_cfa_offset 8
	ret
.LVL1242:
.L817:
	.cfi_restore_state
.LBB12245:
.LBB12219:
.LBB12209:
.LBB12203:
.LBB12197:
.LBB12191:
.LBB12186:
.LBB12181:
.LBB12175:
.LBB12147:
.LBB12143:
.LBB12133:
.LBB12128:
.LBB12123:
.LBB12118:
	.loc 22 102 0
	movq	%rdx, %rdi
	jmp	.L788
.LVL1243:
.L810:
.LBE12118:
.LBE12123:
.LBE12128:
.LBE12133:
.LBE12143:
.LBE12147:
.LBE12175:
.LBE12181:
.LBE12186:
.LBE12191:
.LBE12197:
.LBE12203:
.LBE12209:
.LBE12219:
.LBB12220:
.LBB11884:
	.loc 21 1341 0
	movl	$1, %edx
.L764:
.LVL1244:
	leaq	(%rdx,%rdx,4), %rdi
.LVL1245:
	.loc 21 1342 0
	movq	%rdx, 32(%rsp)
	salq	$3, %rdi
	jmp	.L765
.LVL1246:
.L839:
.LBE11884:
.LBE12220:
.LBB12221:
.LBB12021:
.LBB12014:
.LBB12007:
.LBB12000:
.LBB11993:
.LBB11985:
.LBB11978:
.LBB11965:
.LBB11923:
.LBB11918:
.LBB11915:
.LBB11912:
.LBB11907:
.LBB11908:
	.loc 4 101 0
	movabsq	$461168601842738790, %rcx
	cmpq	%rcx, %rdx
	ja	.L842
	.loc 4 104 0
	leaq	0(,%rax,8), %rbx
	movq	%rbx, %rdi
.LEHB42:
	call	_Znwm
.LEHE42:
.LVL1247:
	movq	%rax, %r15
	jmp	.L767
.LVL1248:
.L783:
.LBE11908:
.LBE11907:
.LBE11912:
.LBE11915:
.LBE11918:
.LBE11923:
.LBE11965:
.LBE11978:
.LBE11985:
.LBE11993:
.LBE12000:
.LBE12007:
.LBE12014:
.LBE12021:
.LBE12221:
	.loc 26 417 0
	movq	16(%rsp), %rax
	addq	$40, %rax
	movq	%rax, 24(%rsp)
.LVL1249:
	jmp	.L787
.LVL1250:
.L840:
.LBB12222:
.LBB12210:
.LBB12204:
.LBB12198:
.LBB12192:
.LBB12187:
.LBB12182:
.LBB12176:
.LBB12148:
.LBB12144:
.LBB12134:
.LBB12129:
.LBB12124:
.LBB12119:
.LBB12114:
.LBB12110:
.LBB12106:
.LBB12102:
.LBB12097:
.LBB12086:
.LBB12076:
.LBB12077:
.LBB12078:
	.loc 19 49 0
	movl	$-1, %esi
	lock xaddl	%esi, -8(%rax)
.LBE12078:
.LBE12077:
.LBE12076:
	.loc 17 245 0
	testl	%esi, %esi
	jg	.L795
	.loc 17 249 0
	leaq	79(%rsp), %rsi
.LVL1251:
	movq	%rcx, 56(%rsp)
	movq	%r8, 48(%rsp)
	movq	%rdx, 40(%rsp)
	call	_ZNSs4_Rep10_M_destroyERKSaIcE
.LVL1252:
	movq	56(%rsp), %rcx
	movq	48(%rsp), %r8
	movq	40(%rsp), %rdx
	jmp	.L795
.LVL1253:
.L841:
.LBE12086:
.LBE12097:
.LBE12102:
.LBE12106:
.LBE12110:
.LBE12114:
.LBE12119:
.LBE12124:
.LBE12129:
.LBE12134:
.LBE12144:
.LBE12148:
.LBE12176:
.LBB12177:
.LBB12173:
.LBB12171:
.LBB12169:
.LBB12159:
.LBB12160:
	.loc 19 81 0
	movl	$_ZL28__gthrw___pthread_key_createPjPFvPvE, %ecx
.LBE12160:
.LBE12159:
	.loc 17 246 0
	leaq	16(%rdi), %rdx
.LVL1254:
.LBB12167:
.LBB12165:
	.loc 19 81 0
	testq	%rcx, %rcx
	je	.L801
.LVL1255:
.LBB12161:
.LBB12162:
	.loc 19 49 0
	movl	$-1, %eax
	lock xaddl	%eax, (%rdx)
.LVL1256:
.L802:
.LBE12162:
.LBE12161:
.LBE12165:
.LBE12167:
	.loc 17 245 0
	testl	%eax, %eax
	jg	.L800
	.loc 17 249 0
	leaq	79(%rsp), %rsi
.LVL1257:
	call	_ZNSs4_Rep10_M_destroyERKSaIcE
.LVL1258:
	jmp	.L800
.LVL1259:
.L818:
.L782:
.LBE12169:
.LBE12171:
.LBE12173:
.LBE12177:
.LBE12182:
.LBE12187:
.LBE12192:
.LBE12198:
.LBE12204:
.LBE12210:
.LBE12222:
	.loc 26 419 0
	movq	%rax, %rdi
	call	__cxa_begin_catch
.LVL1260:
	.loc 26 421 0
	cmpq	$0, 16(%rsp)
	je	.L843
.LVL1261:
.LBB12223:
.LBB12224:
.LBB12225:
	.loc 4 110 0
	movq	16(%rsp), %rdi
	call	_ZdlPv
.LVL1262:
.L809:
.LEHB43:
.LBE12225:
.LBE12224:
.LBE12223:
	.loc 26 426 0
	call	__cxa_rethrow
.LEHE43:
.LVL1263:
.L801:
.LBB12226:
.LBB12211:
.LBB12205:
.LBB12199:
.LBB12193:
.LBB12188:
.LBB12183:
.LBB12178:
.LBB12174:
.LBB12172:
.LBB12170:
.LBB12168:
.LBB12166:
.LBB12163:
.LBB12164:
	.loc 19 67 0
	movl	-8(%rax), %edx
.LVL1264:
	.loc 19 68 0
	leal	-1(%rdx), %ecx
	movl	%ecx, -8(%rax)
.LBE12164:
.LBE12163:
	.loc 19 84 0
	movl	%edx, %eax
	jmp	.L802
.LVL1265:
.L819:
	movq	%rax, %rbx
.LBE12166:
.LBE12168:
.LBE12170:
.LBE12172:
.LBE12174:
.LBE12178:
.LBE12183:
.LBE12188:
.LBE12193:
.LBE12199:
.LBE12205:
.LBE12211:
.LBE12226:
	.loc 26 419 0
	call	__cxa_end_catch
.LVL1266:
	movq	%rbx, %rdi
.LEHB44:
	call	_Unwind_Resume
.LEHE44:
.LVL1267:
.L843:
.LBB12227:
.LBB12228:
	.loc 21 646 0
	movq	8(%rsp), %rax
	movq	8(%rax), %rdi
	subq	(%rax), %rdi
.LBE12228:
.LBE12227:
	.loc 26 422 0
	andq	$-8, %rdi
.LBB12229:
.LBB12230:
.LBB12231:
.LBB12232:
	.loc 4 124 0
	call	_ZN4PathD1Ev
.LVL1268:
	jmp	.L809
.LVL1269:
.L838:
.LBE12232:
.LBE12231:
.LBE12230:
.LBE12229:
.LBB12233:
.LBB11885:
	.loc 21 1342 0
	movabsq	$461168601842738790, %rax
	cmpq	%rax, %rdx
	jbe	.L764
	movq	$-16, %rdi
.LVL1270:
	movq	%rax, 32(%rsp)
	jmp	.L765
.LVL1271:
.L842:
.LEHB45:
.LBE11885:
.LBE12233:
.LBB12234:
.LBB12022:
.LBB12015:
.LBB12008:
.LBB12001:
.LBB11994:
.LBB11986:
.LBB11979:
.LBB11966:
.LBB11924:
.LBB11919:
.LBB11916:
.LBB11913:
.LBB11910:
.LBB11909:
	.loc 4 102 0
	call	_ZSt17__throw_bad_allocv
.LEHE45:
.LVL1272:
.L816:
.LBE11909:
.LBE11910:
.LBE11913:
.LBE11916:
.LBE11919:
.LBE11924:
.LBE11966:
.LBE11979:
.LBE11986:
.LBE11994:
.LBE12001:
.LBE12008:
.LBE12015:
.LBE12022:
.LBE12234:
.LBB12235:
.LBB12212:
.LBB12206:
.LBB12200:
.LBB12194:
	.loc 22 102 0
	movq	%r13, %rdi
.LVL1273:
	jmp	.L787
.LVL1274:
.L822:
.LBE12194:
.LBE12200:
.LBE12206:
.LBE12212:
.LBE12235:
.LBB12236:
.LBB12023:
.LBB12016:
.LBB12009:
.LBB12002:
.LBB11995:
.LBB11987:
.LBB11980:
.LBB11967:
.LBB11962:
.LBB11959:
.LBB11956:
.LBB11953:
	.loc 27 78 0
	movq	%rax, %rdi
.LBB11936:
.LBB11937:
.LBB11938:
.LBB11939:
	.loc 22 102 0
	movq	%r15, %r12
.LVL1275:
	leaq	79(%rsp), %rbp
.LBE11939:
.LBE11938:
.LBE11937:
.LBE11936:
	.loc 27 78 0
	call	__cxa_begin_catch
.LVL1276:
.LBB11951:
.LBB11950:
.LBB11949:
.LBB11948:
	.loc 22 102 0
	cmpq	%rbx, %r15
	leaq	32(%r15), %r14
.LVL1277:
	je	.L844
.LVL1278:
.L780:
	movq	%r12, %rax
.LBB11940:
.LBB11941:
.LBB11942:
.LBB11943:
	.loc 17 539 0
	movq	%rbp, %rsi
.LBE11943:
.LBE11942:
.LBE11941:
.LBE11940:
	.loc 22 102 0
	addq	$40, %r12
.LVL1279:
	subq	%r15, %rax
.LVL1280:
.LBB11947:
.LBB11946:
.LBB11945:
.LBB11944:
	.loc 17 539 0
	movq	(%r14,%rax), %rdi
	subq	$24, %rdi
	call	_ZNSs4_Rep10_M_disposeERKSaIcE
.LVL1281:
.LBE11944:
.LBE11945:
.LBE11946:
.LBE11947:
	.loc 22 102 0
	cmpq	%rbx, %r12
	jne	.L780
.LVL1282:
.L779:
.LEHB46:
.LBE11948:
.LBE11949:
.LBE11950:
.LBE11951:
	.loc 27 81 0
	call	__cxa_rethrow
.LEHE46:
.LVL1283:
.L793:
	movq	%rbx, %rax
	subq	%r15, %rax
.LBE11953:
.LBE11956:
.LBE11959:
.LBE11962:
.LBE11967:
.LBE11980:
.LBE11987:
.LBE11995:
.LBE12002:
.LBE12009:
.LBE12016:
.LBE12023:
.LBE12236:
.LBB12237:
.LBB12213:
.LBB12207:
.LBB12201:
.LBB12195:
.LBB12189:
.LBB12184:
.LBB12179:
.LBB12149:
.LBB12145:
.LBB12135:
.LBB12130:
.LBB12125:
.LBB12120:
.LBB12115:
.LBB12111:
.LBB12107:
.LBB12103:
.LBB12098:
.LBB12095:
.LBB12094:
.LBB12093:
	.loc 17 293 0
	movq	(%rcx,%rax), %rax
.LBE12093:
.LBE12094:
.LBE12095:
.LBE12098:
	.loc 17 539 0
	leaq	-24(%rax), %rdi
.LVL1284:
.LBB12099:
.LBB12087:
	.loc 17 240 0
	cmpq	$_ZNSs4_Rep20_S_empty_rep_storageE, %rdi
	jne	.L845
.LVL1285:
.L791:
.LBE12087:
.LBE12099:
.LBE12103:
.LBE12107:
.LBE12111:
.LBE12115:
	.loc 22 102 0
	addq	$40, %rbx
.LVL1286:
	cmpq	%rbx, %rdx
	jne	.L793
	jmp	.L792
.LVL1287:
.L820:
	leaq	79(%rsp), %rbp
	movq	%rax, %rbx
.LVL1288:
.L781:
.LBE12120:
.LBE12125:
.LBE12130:
.LBE12135:
.LBE12145:
.LBE12149:
.LBE12179:
.LBE12184:
.LBE12189:
.LBE12195:
.LBE12201:
.LBE12207:
.LBE12213:
.LBE12237:
.LBB12238:
.LBB12024:
.LBB12017:
.LBB12010:
.LBB12003:
.LBB11996:
.LBB11988:
.LBB11989:
	.loc 17 539 0
	movq	0(%r13), %rdi
	movq	%rbp, %rsi
	subq	$24, %rdi
	call	_ZNSs4_Rep10_M_disposeERKSaIcE
.LVL1289:
	movq	%rbx, %rax
	jmp	.L782
.LVL1290:
.L845:
.LBE11989:
.LBE11988:
.LBE11996:
.LBE12003:
.LBE12010:
.LBE12017:
.LBE12024:
.LBE12238:
.LBB12239:
.LBB12214:
.LBB12208:
.LBB12202:
.LBB12196:
.LBB12190:
.LBB12185:
.LBB12180:
.LBB12150:
.LBB12146:
.LBB12136:
.LBB12131:
.LBB12126:
.LBB12121:
.LBB12116:
.LBB12112:
.LBB12108:
.LBB12104:
.LBB12100:
.LBB12088:
.LBB12083:
.LBB12079:
.LBB12080:
	.loc 19 67 0
	movl	-8(%rax), %esi
.LVL1291:
	.loc 19 68 0
	leal	-1(%rsi), %r9d
.LBE12080:
.LBE12079:
.LBE12083:
	.loc 17 245 0
	testl	%esi, %esi
.LBB12084:
.LBB12082:
.LBB12081:
	.loc 19 68 0
	movl	%r9d, -8(%rax)
.LBE12081:
.LBE12082:
.LBE12084:
	.loc 17 245 0
	jg	.L791
	.loc 17 249 0
	leaq	79(%rsp), %rsi
.LVL1292:
	movq	%rcx, 56(%rsp)
	movq	%r8, 48(%rsp)
	movq	%rdx, 40(%rsp)
	call	_ZNSs4_Rep10_M_destroyERKSaIcE
.LVL1293:
	movq	56(%rsp), %rcx
	movq	48(%rsp), %r8
	movq	40(%rsp), %rdx
	jmp	.L791
.LVL1294:
.L844:
	leaq	79(%rsp), %rbp
	jmp	.L779
.LVL1295:
.L821:
	movq	%rax, %rbx
.LVL1296:
.LBE12088:
.LBE12100:
.LBE12104:
.LBE12108:
.LBE12112:
.LBE12116:
.LBE12121:
.LBE12126:
.LBE12131:
.LBE12136:
.LBE12146:
.LBE12150:
.LBE12180:
.LBE12185:
.LBE12190:
.LBE12196:
.LBE12202:
.LBE12208:
.LBE12214:
.LBE12239:
.LBB12240:
.LBB12025:
.LBB12018:
.LBB12011:
.LBB12004:
.LBB11997:
.LBB11990:
.LBB11981:
.LBB11968:
.LBB11963:
.LBB11960:
.LBB11957:
.LBB11954:
	.loc 27 78 0
	call	__cxa_end_catch
.LVL1297:
.LBE11954:
.LBE11957:
.LBE11960:
.LBE11963:
.LBE11968:
.LBB11969:
.LBB11970:
	.loc 21 161 0
	movq	8(%r13), %rdi
.LVL1298:
.LBB11971:
.LBB11972:
	.loc 21 173 0
	testq	%rdi, %rdi
	je	.L781
.LVL1299:
.LBB11973:
.LBB11974:
	.loc 4 110 0
	call	_ZdlPv
.LVL1300:
	jmp	.L781
.LBE11974:
.LBE11973:
.LBE11972:
.LBE11971:
.LBE11970:
.LBE11969:
.LBE11981:
.LBE11990:
.LBE11997:
.LBE12004:
.LBE12011:
.LBE12018:
.LBE12025:
.LBE12240:
.LBE12245:
	.cfi_endproc
.LFE6072:
	.section	.gcc_except_table
	.align 4
.LLSDA6072:
	.byte	0xff
	.byte	0x3
	.uleb128 .LLSDATT6072-.LLSDATTD6072
.LLSDATTD6072:
	.byte	0x1
	.uleb128 .LLSDACSE6072-.LLSDACSB6072
.LLSDACSB6072:
	.uleb128 .LEHB39-.LFB6072
	.uleb128 .LEHE39-.LEHB39
	.uleb128 0
	.uleb128 0
	.uleb128 .LEHB40-.LFB6072
	.uleb128 .LEHE40-.LEHB40
	.uleb128 .L818-.LFB6072
	.uleb128 0x1
	.uleb128 .LEHB41-.LFB6072
	.uleb128 .LEHE41-.LEHB41
	.uleb128 .L822-.LFB6072
	.uleb128 0x1
	.uleb128 .LEHB42-.LFB6072
	.uleb128 .LEHE42-.LEHB42
	.uleb128 .L820-.LFB6072
	.uleb128 0x3
	.uleb128 .LEHB43-.LFB6072
	.uleb128 .LEHE43-.LEHB43
	.uleb128 .L819-.LFB6072
	.uleb128 0
	.uleb128 .LEHB44-.LFB6072
	.uleb128 .LEHE44-.LEHB44
	.uleb128 0
	.uleb128 0
	.uleb128 .LEHB45-.LFB6072
	.uleb128 .LEHE45-.LEHB45
	.uleb128 .L820-.LFB6072
	.uleb128 0x3
	.uleb128 .LEHB46-.LFB6072
	.uleb128 .LEHE46-.LEHB46
	.uleb128 .L821-.LFB6072
	.uleb128 0x3
.LLSDACSE6072:
	.byte	0x1
	.byte	0
	.byte	0
	.byte	0x7d
	.align 4
	.long	0

.LLSDATT6072:
	.section	.text._ZNSt6vectorI4PathSaIS0_EE19_M_emplace_back_auxIIRKS0_EEEvDpOT_,"axG",@progbits,_ZNSt6vectorI4PathSaIS0_EE19_M_emplace_back_auxIIRKS0_EEEvDpOT_,comdat
	.size	_ZNSt6vectorI4PathSaIS0_EE19_M_emplace_back_auxIIRKS0_EEEvDpOT_, .-_ZNSt6vectorI4PathSaIS0_EE19_M_emplace_back_auxIIRKS0_EEEvDpOT_
	.weak	_ZNSt6vectorI4PathSaIS0_EE19_M_emplace_back_auxIJRKS0_EEEvDpOT_
	.set	_ZNSt6vectorI4PathSaIS0_EE19_M_emplace_back_auxIJRKS0_EEEvDpOT_,_ZNSt6vectorI4PathSaIS0_EE19_M_emplace_back_auxIIRKS0_EEEvDpOT_
	.section	.text._ZNSt6vectorIlSaIlEE19_M_emplace_back_auxIIRKlEEEvDpOT_,"axG",@progbits,_ZNSt6vectorIlSaIlEE19_M_emplace_back_auxIIRKlEEEvDpOT_,comdat
	.align 2
	.p2align 4,,15
	.weak	_ZNSt6vectorIlSaIlEE19_M_emplace_back_auxIIRKlEEEvDpOT_
	.type	_ZNSt6vectorIlSaIlEE19_M_emplace_back_auxIIRKlEEEvDpOT_, @function
_ZNSt6vectorIlSaIlEE19_M_emplace_back_auxIIRKlEEEvDpOT_:
.LFB6074:
	.loc 26 399 0
	.cfi_startproc
.LVL1301:
	pushq	%r13
	.cfi_def_cfa_offset 16
	.cfi_offset 13, -16
	pushq	%r12
	.cfi_def_cfa_offset 24
	.cfi_offset 12, -24
.LBB12280:
.LBB12281:
.LBB12282:
.LBB12283:
.LBB12284:
	.loc 34 221 0
	movl	$8, %r12d
.LBE12284:
.LBE12283:
.LBE12282:
.LBE12281:
.LBE12280:
	.loc 26 399 0
	pushq	%rbp
	.cfi_def_cfa_offset 32
	.cfi_offset 6, -32
	pushq	%rbx
	.cfi_def_cfa_offset 40
	.cfi_offset 3, -40
	movq	%rdi, %rbx
	subq	$24, %rsp
	.cfi_def_cfa_offset 64
.LBB12319:
.LBB12291:
.LBB12289:
.LBB12286:
.LBB12287:
	.loc 21 646 0
	movq	8(%rdi), %rdx
	subq	(%rdi), %rdx
	sarq	$3, %rdx
.LVL1302:
.LBE12287:
.LBE12286:
.LBB12288:
.LBB12285:
	.loc 34 221 0
	testq	%rdx, %rdx
	jne	.L865
.L848:
.LBE12285:
.LBE12288:
.LBE12289:
.LBE12291:
.LBB12292:
.LBB12293:
.LBB12294:
	.loc 4 104 0
	movq	%r12, %rdi
.LVL1303:
	movq	%rsi, 8(%rsp)
.LVL1304:
	call	_Znwm
.LVL1305:
	movq	(%rbx), %rcx
	movq	%rax, %rbp
	movq	8(%rbx), %rax
.LBE12294:
.LBE12293:
.LBE12292:
.LBB12295:
.LBB12296:
.LBB12297:
.LBB12298:
	.loc 4 120 0
	movq	8(%rsp), %rsi
	movq	%rbp, %r13
	subq	%rcx, %rax
	sarq	$3, %rax
.LVL1306:
	movq	(%rsi), %rsi
.LVL1307:
.LBE12298:
.LBE12297:
.LBE12296:
.LBE12295:
	.loc 26 409 0
	leaq	0(,%rax,8), %rdx
.LVL1308:
.LBB12302:
.LBB12301:
.LBB12300:
.LBB12299:
	.loc 4 120 0
	addq	%rdx, %r13
.LVL1309:
	je	.L849
	movq	%rsi, 0(%r13)
.L849:
.LVL1310:
.LBE12299:
.LBE12300:
.LBE12301:
.LBE12302:
.LBB12303:
.LBB12304:
.LBB12305:
.LBB12306:
.LBB12307:
.LBB12308:
.LBB12309:
.LBB12310:
.LBB12311:
.LBB12312:
.LBB12313:
	.loc 34 371 0
	testq	%rax, %rax
	movq	%rcx, %rdi
	je	.L850
	.loc 34 372 0
	movq	%rbp, %rdi
	movq	%rcx, %rsi
	call	memmove
.LVL1311:
	movq	(%rbx), %rdi
.L850:
.LVL1312:
.LBE12313:
.LBE12312:
.LBE12311:
.LBE12310:
.LBE12309:
.LBE12308:
.LBE12307:
.LBE12306:
.LBE12305:
.LBE12304:
.LBE12303:
	.loc 26 417 0
	addq	$8, %r13
.LVL1313:
.LBB12314:
.LBB12315:
	.loc 21 173 0
	testq	%rdi, %rdi
	je	.L851
.LVL1314:
.LBB12316:
.LBB12317:
	.loc 4 110 0
	call	_ZdlPv
.LVL1315:
.L851:
.LBE12317:
.LBE12316:
.LBE12315:
.LBE12314:
	.loc 26 433 0
	movq	%rbp, (%rbx)
	.loc 26 435 0
	addq	%r12, %rbp
.LVL1316:
	.loc 26 434 0
	movq	%r13, 8(%rbx)
	.loc 26 435 0
	movq	%rbp, 16(%rbx)
.LBE12319:
	.loc 26 436 0
	addq	$24, %rsp
	.cfi_remember_state
	.cfi_def_cfa_offset 40
	popq	%rbx
	.cfi_def_cfa_offset 32
.LVL1317:
	popq	%rbp
	.cfi_def_cfa_offset 24
	popq	%r12
	.cfi_def_cfa_offset 16
	popq	%r13
	.cfi_def_cfa_offset 8
.LVL1318:
	ret
.LVL1319:
	.p2align 4,,10
	.p2align 3
.L865:
	.cfi_restore_state
.LBB12320:
.LBB12318:
.LBB12290:
	.loc 21 1341 0
	leaq	(%rdx,%rdx), %rax
.LVL1320:
	.loc 21 1342 0
	cmpq	%rax, %rdx
	jbe	.L866
	movq	$-8, %r12
	jmp	.L848
.L866:
.LVL1321:
	movabsq	$2305843009213693951, %rcx
	salq	$4, %rdx
	movq	$-8, %r12
	cmpq	%rcx, %rax
	cmovbe	%rdx, %r12
	jmp	.L848
.LBE12290:
.LBE12318:
.LBE12320:
	.cfi_endproc
.LFE6074:
	.size	_ZNSt6vectorIlSaIlEE19_M_emplace_back_auxIIRKlEEEvDpOT_, .-_ZNSt6vectorIlSaIlEE19_M_emplace_back_auxIIRKlEEEvDpOT_
	.weak	_ZNSt6vectorIlSaIlEE19_M_emplace_back_auxIJRKlEEEvDpOT_
	.set	_ZNSt6vectorIlSaIlEE19_M_emplace_back_auxIJRKlEEEvDpOT_,_ZNSt6vectorIlSaIlEE19_M_emplace_back_auxIIRKlEEEvDpOT_
	.section	.text._ZNSt6vectorI9PathPointSaIS0_EE19_M_emplace_back_auxIIS0_EEEvDpOT_,"axG",@progbits,_ZNSt6vectorI9PathPointSaIS0_EE19_M_emplace_back_auxIIS0_EEEvDpOT_,comdat
	.align 2
	.p2align 4,,15
	.weak	_ZNSt6vectorI9PathPointSaIS0_EE19_M_emplace_back_auxIIS0_EEEvDpOT_
	.type	_ZNSt6vectorI9PathPointSaIS0_EE19_M_emplace_back_auxIIS0_EEEvDpOT_, @function
_ZNSt6vectorI9PathPointSaIS0_EE19_M_emplace_back_auxIIS0_EEEvDpOT_:
.LFB6293:
	.loc 26 399 0
	.cfi_startproc
.LVL1322:
	pushq	%r15
	.cfi_def_cfa_offset 16
	.cfi_offset 15, -16
.LBB12403:
.LBB12404:
.LBB12405:
.LBB12406:
.LBB12407:
	.loc 21 646 0
	movabsq	$-3689348814741910323, %rdx
.LBE12407:
.LBE12406:
.LBB12409:
.LBB12410:
	.loc 34 221 0
	movl	$40, %r15d
.LBE12410:
.LBE12409:
.LBE12405:
.LBE12404:
.LBE12403:
	.loc 26 399 0
	pushq	%r14
	.cfi_def_cfa_offset 24
	.cfi_offset 14, -24
	movq	%rdi, %r14
	pushq	%r13
	.cfi_def_cfa_offset 32
	.cfi_offset 13, -32
	pushq	%r12
	.cfi_def_cfa_offset 40
	.cfi_offset 12, -40
	pushq	%rbp
	.cfi_def_cfa_offset 48
	.cfi_offset 6, -48
	pushq	%rbx
	.cfi_def_cfa_offset 56
	.cfi_offset 3, -56
	subq	$40, %rsp
	.cfi_def_cfa_offset 96
.LBB12517:
.LBB12417:
.LBB12414:
.LBB12412:
.LBB12408:
	.loc 21 646 0
	movq	8(%rdi), %rax
	subq	(%rdi), %rax
	sarq	$3, %rax
	imulq	%rdx, %rax
.LVL1323:
.LBE12408:
.LBE12412:
.LBB12413:
.LBB12411:
	.loc 34 221 0
	testq	%rax, %rax
	jne	.L903
.L869:
.LBE12411:
.LBE12413:
.LBE12414:
.LBE12417:
.LBB12418:
.LBB12419:
.LBB12420:
	.loc 4 104 0
	movq	%r15, %rdi
.LVL1324:
	movq	%rsi, (%rsp)
.LVL1325:
	call	_Znwm
.LVL1326:
	movq	8(%r14), %r13
	movq	(%r14), %r12
	leaq	40(%rax), %r8
.LVL1327:
	movq	%r13, %rdx
	subq	%r12, %rdx
.LBE12420:
.LBE12419:
.LBE12418:
	.loc 26 409 0
	andq	$-8, %rdx
.LVL1328:
.LBB12421:
.LBB12422:
.LBB12423:
.LBB12424:
	.loc 4 120 0
	addq	%rax, %rdx
.LVL1329:
	je	.L870
.LVL1330:
.LBB12425:
.LBB12426:
	.loc 20 25 0
	movq	(%rsp), %rsi
	movl	16(%rsi), %ecx
	movsd	(%rsi), %xmm0
	movsd	%xmm0, (%rdx)
	movsd	8(%rsi), %xmm0
	movl	%ecx, 16(%rdx)
	movq	24(%rsi), %rcx
	movsd	%xmm0, 8(%rdx)
	movq	%rcx, 24(%rdx)
.LVL1331:
.LBB12427:
.LBB12428:
.LBB12429:
	.loc 17 272 0
	movq	32(%rsi), %rcx
	movq	%rcx, 32(%rdx)
.LVL1332:
.LBE12429:
.LBE12428:
.LBB12430:
.LBB12431:
	.loc 17 297 0
	movq	$_ZNSs4_Rep20_S_empty_rep_storageE+24, 32(%rsi)
.LVL1333:
.L870:
.LBE12431:
.LBE12430:
.LBE12427:
.LBE12426:
.LBE12425:
.LBE12424:
.LBE12423:
.LBE12422:
.LBE12421:
.LBB12432:
.LBB12433:
.LBB12434:
.LBB12435:
.LBB12436:
.LBB12437:
	.loc 27 74 0
	cmpq	%r13, %r12
	je	.L888
	leaq	32(%r12), %rbp
	movq	%r12, %rcx
	.loc 27 71 0
	movq	%rax, %rdx
.LVL1334:
	.p2align 4,,10
	.p2align 3
.L874:
.LBB12438:
.LBB12439:
	.loc 22 75 0
	testq	%rdx, %rdx
	je	.L872
.LVL1335:
.LBB12440:
.LBB12441:
	.loc 20 25 0
	movsd	(%rcx), %xmm0
	movsd	%xmm0, (%rdx)
	movsd	8(%rcx), %xmm0
	movsd	%xmm0, 8(%rdx)
	movl	16(%rcx), %esi
	movl	%esi, 16(%rdx)
	movq	24(%rcx), %rsi
	movq	%rsi, 24(%rdx)
.LVL1336:
	movq	%rcx, %rsi
	subq	%r12, %rsi
.LBB12442:
.LBB12443:
.LBB12444:
	.loc 17 272 0
	movq	(%rsi,%rbp), %rdi
	movq	%rdi, 32(%rdx)
.LVL1337:
.LBE12444:
.LBE12443:
.LBB12445:
.LBB12446:
	.loc 17 297 0
	movq	$_ZNSs4_Rep20_S_empty_rep_storageE+24, (%rsi,%rbp)
.LVL1338:
.L872:
.LBE12446:
.LBE12445:
.LBE12442:
.LBE12441:
.LBE12440:
.LBE12439:
.LBE12438:
.LBB12447:
.LBB12448:
	.loc 25 972 0
	addq	$40, %rcx
.LVL1339:
.LBE12448:
.LBE12447:
	.loc 27 74 0
	addq	$40, %rdx
.LVL1340:
	cmpq	%r13, %rcx
	jne	.L874
.LVL1341:
	leaq	40(%r12), %rdx
.LVL1342:
	movq	%r13, %rbx
	subq	%rdx, %rbx
	movq	%rbx, %rdx
.LBE12437:
.LBE12436:
.LBE12435:
.LBE12434:
.LBE12433:
.LBE12432:
	.loc 26 417 0
	movq	%r12, %rbx
	shrq	$3, %rdx
	leaq	80(%rax,%rdx,8), %r8
.LVL1343:
	movl	$_ZL28__gthrw___pthread_key_createPjPFvPvE, %edx
	testq	%rdx, %rdx
	je	.L879
.LVL1344:
	.p2align 4,,10
	.p2align 3
.L883:
	movq	%rbx, %rdx
	subq	%r12, %rdx
.LBB12454:
.LBB12455:
.LBB12456:
.LBB12457:
.LBB12458:
.LBB12459:
.LBB12460:
.LBB12461:
.LBB12462:
.LBB12463:
.LBB12464:
.LBB12465:
.LBB12466:
	.loc 17 293 0
	movq	0(%rbp,%rdx), %rdx
.LBE12466:
.LBE12465:
.LBE12464:
.LBE12463:
	.loc 17 539 0
	leaq	-24(%rdx), %rdi
.LVL1345:
.LBB12470:
.LBB12471:
	.loc 17 240 0
	cmpq	$_ZNSs4_Rep20_S_empty_rep_storageE, %rdi
	jne	.L904
.LVL1346:
.L881:
.LBE12471:
.LBE12470:
.LBE12462:
.LBE12461:
.LBE12460:
.LBE12459:
	.loc 22 102 0
	addq	$40, %rbx
.LVL1347:
	cmpq	%r13, %rbx
	jne	.L883
.LVL1348:
.L878:
	movq	(%r14), %rdi
.LVL1349:
.L871:
.LBE12458:
.LBE12457:
.LBE12456:
.LBE12455:
.LBE12454:
.LBB12508:
.LBB12509:
	.loc 21 173 0
	testq	%rdi, %rdi
	je	.L884
	movq	%rax, 8(%rsp)
	movq	%r8, (%rsp)
.LVL1350:
.LBB12510:
.LBB12511:
	.loc 4 110 0
	call	_ZdlPv
.LVL1351:
	movq	8(%rsp), %rax
	movq	(%rsp), %r8
.LVL1352:
.L884:
.LBE12511:
.LBE12510:
.LBE12509:
.LBE12508:
	.loc 26 435 0
	addq	%rax, %r15
	.loc 26 434 0
	movq	%r8, 8(%r14)
